   1              		.cpu cortex-m7
   2              		.eabi_attribute 28, 1
   3              		.eabi_attribute 20, 1
   4              		.eabi_attribute 21, 1
   5              		.eabi_attribute 23, 3
   6              		.eabi_attribute 24, 1
   7              		.eabi_attribute 25, 1
   8              		.eabi_attribute 26, 1
   9              		.eabi_attribute 30, 1
  10              		.eabi_attribute 34, 1
  11              		.eabi_attribute 18, 4
  12              		.file	"stm32f7xx_hal_dma_ex.c"
  13              		.text
  14              	.Ltext0:
  15              		.cfi_sections	.debug_frame
  16              		.section	.text.DMA_MultiBufferSetConfig,"ax",%progbits
  17              		.align	1
  18              		.syntax unified
  19              		.thumb
  20              		.thumb_func
  21              		.fpu fpv5-d16
  23              	DMA_MultiBufferSetConfig:
  24              	.LFB141:
  25              		.file 1 "/Users/Qianqian/Desktop/MPS/stm32lib/Drivers/STM32F7xx_HAL_Driver/Src/stm32f7xx_hal_dma_e
   1:/Users/Qianqian/Desktop/MPS/stm32lib/Drivers/STM32F7xx_HAL_Driver/Src/stm32f7xx_hal_dma_ex.c **** /**
   2:/Users/Qianqian/Desktop/MPS/stm32lib/Drivers/STM32F7xx_HAL_Driver/Src/stm32f7xx_hal_dma_ex.c ****   ******************************************************************************
   3:/Users/Qianqian/Desktop/MPS/stm32lib/Drivers/STM32F7xx_HAL_Driver/Src/stm32f7xx_hal_dma_ex.c ****   * @file    stm32f7xx_hal_dma_ex.c
   4:/Users/Qianqian/Desktop/MPS/stm32lib/Drivers/STM32F7xx_HAL_Driver/Src/stm32f7xx_hal_dma_ex.c ****   * @author  MCD Application Team
   5:/Users/Qianqian/Desktop/MPS/stm32lib/Drivers/STM32F7xx_HAL_Driver/Src/stm32f7xx_hal_dma_ex.c ****   * @version V1.2.2
   6:/Users/Qianqian/Desktop/MPS/stm32lib/Drivers/STM32F7xx_HAL_Driver/Src/stm32f7xx_hal_dma_ex.c ****   * @date    14-April-2017
   7:/Users/Qianqian/Desktop/MPS/stm32lib/Drivers/STM32F7xx_HAL_Driver/Src/stm32f7xx_hal_dma_ex.c ****   * @brief   DMA Extension HAL module driver
   8:/Users/Qianqian/Desktop/MPS/stm32lib/Drivers/STM32F7xx_HAL_Driver/Src/stm32f7xx_hal_dma_ex.c ****   *         This file provides firmware functions to manage the following 
   9:/Users/Qianqian/Desktop/MPS/stm32lib/Drivers/STM32F7xx_HAL_Driver/Src/stm32f7xx_hal_dma_ex.c ****   *         functionalities of the DMA Extension peripheral:
  10:/Users/Qianqian/Desktop/MPS/stm32lib/Drivers/STM32F7xx_HAL_Driver/Src/stm32f7xx_hal_dma_ex.c ****   *           + Extended features functions
  11:/Users/Qianqian/Desktop/MPS/stm32lib/Drivers/STM32F7xx_HAL_Driver/Src/stm32f7xx_hal_dma_ex.c ****   *
  12:/Users/Qianqian/Desktop/MPS/stm32lib/Drivers/STM32F7xx_HAL_Driver/Src/stm32f7xx_hal_dma_ex.c ****   @verbatim
  13:/Users/Qianqian/Desktop/MPS/stm32lib/Drivers/STM32F7xx_HAL_Driver/Src/stm32f7xx_hal_dma_ex.c ****   ==============================================================================
  14:/Users/Qianqian/Desktop/MPS/stm32lib/Drivers/STM32F7xx_HAL_Driver/Src/stm32f7xx_hal_dma_ex.c ****                         ##### How to use this driver #####
  15:/Users/Qianqian/Desktop/MPS/stm32lib/Drivers/STM32F7xx_HAL_Driver/Src/stm32f7xx_hal_dma_ex.c ****   ==============================================================================
  16:/Users/Qianqian/Desktop/MPS/stm32lib/Drivers/STM32F7xx_HAL_Driver/Src/stm32f7xx_hal_dma_ex.c ****   [..]
  17:/Users/Qianqian/Desktop/MPS/stm32lib/Drivers/STM32F7xx_HAL_Driver/Src/stm32f7xx_hal_dma_ex.c ****   The DMA Extension HAL driver can be used as follows:
  18:/Users/Qianqian/Desktop/MPS/stm32lib/Drivers/STM32F7xx_HAL_Driver/Src/stm32f7xx_hal_dma_ex.c ****    (+) Start a multi buffer transfer using the HAL_DMA_MultiBufferStart() function
  19:/Users/Qianqian/Desktop/MPS/stm32lib/Drivers/STM32F7xx_HAL_Driver/Src/stm32f7xx_hal_dma_ex.c ****        for polling mode or HAL_DMA_MultiBufferStart_IT() for interrupt mode.
  20:/Users/Qianqian/Desktop/MPS/stm32lib/Drivers/STM32F7xx_HAL_Driver/Src/stm32f7xx_hal_dma_ex.c **** 
  21:/Users/Qianqian/Desktop/MPS/stm32lib/Drivers/STM32F7xx_HAL_Driver/Src/stm32f7xx_hal_dma_ex.c ****      -@-  In Memory-to-Memory transfer mode, Multi (Double) Buffer mode is not allowed.
  22:/Users/Qianqian/Desktop/MPS/stm32lib/Drivers/STM32F7xx_HAL_Driver/Src/stm32f7xx_hal_dma_ex.c ****      -@-  When Multi (Double) Buffer mode is enabled, the transfer is circular by default.
  23:/Users/Qianqian/Desktop/MPS/stm32lib/Drivers/STM32F7xx_HAL_Driver/Src/stm32f7xx_hal_dma_ex.c ****      -@-  In Multi (Double) buffer mode, it is possible to update the base address for 
  24:/Users/Qianqian/Desktop/MPS/stm32lib/Drivers/STM32F7xx_HAL_Driver/Src/stm32f7xx_hal_dma_ex.c ****           the AHB memory port on the fly (DMA_SxM0AR or DMA_SxM1AR) when the stream is enabled.
  25:/Users/Qianqian/Desktop/MPS/stm32lib/Drivers/STM32F7xx_HAL_Driver/Src/stm32f7xx_hal_dma_ex.c ****   
  26:/Users/Qianqian/Desktop/MPS/stm32lib/Drivers/STM32F7xx_HAL_Driver/Src/stm32f7xx_hal_dma_ex.c ****   @endverbatim
  27:/Users/Qianqian/Desktop/MPS/stm32lib/Drivers/STM32F7xx_HAL_Driver/Src/stm32f7xx_hal_dma_ex.c ****   ******************************************************************************
  28:/Users/Qianqian/Desktop/MPS/stm32lib/Drivers/STM32F7xx_HAL_Driver/Src/stm32f7xx_hal_dma_ex.c ****   * @attention
  29:/Users/Qianqian/Desktop/MPS/stm32lib/Drivers/STM32F7xx_HAL_Driver/Src/stm32f7xx_hal_dma_ex.c ****   *
  30:/Users/Qianqian/Desktop/MPS/stm32lib/Drivers/STM32F7xx_HAL_Driver/Src/stm32f7xx_hal_dma_ex.c ****   * <h2><center>&copy; COPYRIGHT(c) 2017 STMicroelectronics</center></h2>
  31:/Users/Qianqian/Desktop/MPS/stm32lib/Drivers/STM32F7xx_HAL_Driver/Src/stm32f7xx_hal_dma_ex.c ****   *
  32:/Users/Qianqian/Desktop/MPS/stm32lib/Drivers/STM32F7xx_HAL_Driver/Src/stm32f7xx_hal_dma_ex.c ****   * Redistribution and use in source and binary forms, with or without modification,
  33:/Users/Qianqian/Desktop/MPS/stm32lib/Drivers/STM32F7xx_HAL_Driver/Src/stm32f7xx_hal_dma_ex.c ****   * are permitted provided that the following conditions are met:
  34:/Users/Qianqian/Desktop/MPS/stm32lib/Drivers/STM32F7xx_HAL_Driver/Src/stm32f7xx_hal_dma_ex.c ****   *   1. Redistributions of source code must retain the above copyright notice,
  35:/Users/Qianqian/Desktop/MPS/stm32lib/Drivers/STM32F7xx_HAL_Driver/Src/stm32f7xx_hal_dma_ex.c ****   *      this list of conditions and the following disclaimer.
  36:/Users/Qianqian/Desktop/MPS/stm32lib/Drivers/STM32F7xx_HAL_Driver/Src/stm32f7xx_hal_dma_ex.c ****   *   2. Redistributions in binary form must reproduce the above copyright notice,
  37:/Users/Qianqian/Desktop/MPS/stm32lib/Drivers/STM32F7xx_HAL_Driver/Src/stm32f7xx_hal_dma_ex.c ****   *      this list of conditions and the following disclaimer in the documentation
  38:/Users/Qianqian/Desktop/MPS/stm32lib/Drivers/STM32F7xx_HAL_Driver/Src/stm32f7xx_hal_dma_ex.c ****   *      and/or other materials provided with the distribution.
  39:/Users/Qianqian/Desktop/MPS/stm32lib/Drivers/STM32F7xx_HAL_Driver/Src/stm32f7xx_hal_dma_ex.c ****   *   3. Neither the name of STMicroelectronics nor the names of its contributors
  40:/Users/Qianqian/Desktop/MPS/stm32lib/Drivers/STM32F7xx_HAL_Driver/Src/stm32f7xx_hal_dma_ex.c ****   *      may be used to endorse or promote products derived from this software
  41:/Users/Qianqian/Desktop/MPS/stm32lib/Drivers/STM32F7xx_HAL_Driver/Src/stm32f7xx_hal_dma_ex.c ****   *      without specific prior written permission.
  42:/Users/Qianqian/Desktop/MPS/stm32lib/Drivers/STM32F7xx_HAL_Driver/Src/stm32f7xx_hal_dma_ex.c ****   *
  43:/Users/Qianqian/Desktop/MPS/stm32lib/Drivers/STM32F7xx_HAL_Driver/Src/stm32f7xx_hal_dma_ex.c ****   * THIS SOFTWARE IS PROVIDED BY THE COPYRIGHT HOLDERS AND CONTRIBUTORS "AS IS"
  44:/Users/Qianqian/Desktop/MPS/stm32lib/Drivers/STM32F7xx_HAL_Driver/Src/stm32f7xx_hal_dma_ex.c ****   * AND ANY EXPRESS OR IMPLIED WARRANTIES, INCLUDING, BUT NOT LIMITED TO, THE
  45:/Users/Qianqian/Desktop/MPS/stm32lib/Drivers/STM32F7xx_HAL_Driver/Src/stm32f7xx_hal_dma_ex.c ****   * IMPLIED WARRANTIES OF MERCHANTABILITY AND FITNESS FOR A PARTICULAR PURPOSE ARE
  46:/Users/Qianqian/Desktop/MPS/stm32lib/Drivers/STM32F7xx_HAL_Driver/Src/stm32f7xx_hal_dma_ex.c ****   * DISCLAIMED. IN NO EVENT SHALL THE COPYRIGHT HOLDER OR CONTRIBUTORS BE LIABLE
  47:/Users/Qianqian/Desktop/MPS/stm32lib/Drivers/STM32F7xx_HAL_Driver/Src/stm32f7xx_hal_dma_ex.c ****   * FOR ANY DIRECT, INDIRECT, INCIDENTAL, SPECIAL, EXEMPLARY, OR CONSEQUENTIAL
  48:/Users/Qianqian/Desktop/MPS/stm32lib/Drivers/STM32F7xx_HAL_Driver/Src/stm32f7xx_hal_dma_ex.c ****   * DAMAGES (INCLUDING, BUT NOT LIMITED TO, PROCUREMENT OF SUBSTITUTE GOODS OR
  49:/Users/Qianqian/Desktop/MPS/stm32lib/Drivers/STM32F7xx_HAL_Driver/Src/stm32f7xx_hal_dma_ex.c ****   * SERVICES; LOSS OF USE, DATA, OR PROFITS; OR BUSINESS INTERRUPTION) HOWEVER
  50:/Users/Qianqian/Desktop/MPS/stm32lib/Drivers/STM32F7xx_HAL_Driver/Src/stm32f7xx_hal_dma_ex.c ****   * CAUSED AND ON ANY THEORY OF LIABILITY, WHETHER IN CONTRACT, STRICT LIABILITY,
  51:/Users/Qianqian/Desktop/MPS/stm32lib/Drivers/STM32F7xx_HAL_Driver/Src/stm32f7xx_hal_dma_ex.c ****   * OR TORT (INCLUDING NEGLIGENCE OR OTHERWISE) ARISING IN ANY WAY OUT OF THE USE
  52:/Users/Qianqian/Desktop/MPS/stm32lib/Drivers/STM32F7xx_HAL_Driver/Src/stm32f7xx_hal_dma_ex.c ****   * OF THIS SOFTWARE, EVEN IF ADVISED OF THE POSSIBILITY OF SUCH DAMAGE.
  53:/Users/Qianqian/Desktop/MPS/stm32lib/Drivers/STM32F7xx_HAL_Driver/Src/stm32f7xx_hal_dma_ex.c ****   *
  54:/Users/Qianqian/Desktop/MPS/stm32lib/Drivers/STM32F7xx_HAL_Driver/Src/stm32f7xx_hal_dma_ex.c ****   ******************************************************************************
  55:/Users/Qianqian/Desktop/MPS/stm32lib/Drivers/STM32F7xx_HAL_Driver/Src/stm32f7xx_hal_dma_ex.c ****   */
  56:/Users/Qianqian/Desktop/MPS/stm32lib/Drivers/STM32F7xx_HAL_Driver/Src/stm32f7xx_hal_dma_ex.c **** 
  57:/Users/Qianqian/Desktop/MPS/stm32lib/Drivers/STM32F7xx_HAL_Driver/Src/stm32f7xx_hal_dma_ex.c **** /* Includes ------------------------------------------------------------------*/
  58:/Users/Qianqian/Desktop/MPS/stm32lib/Drivers/STM32F7xx_HAL_Driver/Src/stm32f7xx_hal_dma_ex.c **** #include "stm32f7xx_hal.h"
  59:/Users/Qianqian/Desktop/MPS/stm32lib/Drivers/STM32F7xx_HAL_Driver/Src/stm32f7xx_hal_dma_ex.c **** 
  60:/Users/Qianqian/Desktop/MPS/stm32lib/Drivers/STM32F7xx_HAL_Driver/Src/stm32f7xx_hal_dma_ex.c **** /** @addtogroup STM32F7xx_HAL_Driver
  61:/Users/Qianqian/Desktop/MPS/stm32lib/Drivers/STM32F7xx_HAL_Driver/Src/stm32f7xx_hal_dma_ex.c ****   * @{
  62:/Users/Qianqian/Desktop/MPS/stm32lib/Drivers/STM32F7xx_HAL_Driver/Src/stm32f7xx_hal_dma_ex.c ****   */
  63:/Users/Qianqian/Desktop/MPS/stm32lib/Drivers/STM32F7xx_HAL_Driver/Src/stm32f7xx_hal_dma_ex.c **** 
  64:/Users/Qianqian/Desktop/MPS/stm32lib/Drivers/STM32F7xx_HAL_Driver/Src/stm32f7xx_hal_dma_ex.c **** /** @defgroup DMAEx DMAEx
  65:/Users/Qianqian/Desktop/MPS/stm32lib/Drivers/STM32F7xx_HAL_Driver/Src/stm32f7xx_hal_dma_ex.c ****   * @brief DMA Extended HAL module driver
  66:/Users/Qianqian/Desktop/MPS/stm32lib/Drivers/STM32F7xx_HAL_Driver/Src/stm32f7xx_hal_dma_ex.c ****   * @{
  67:/Users/Qianqian/Desktop/MPS/stm32lib/Drivers/STM32F7xx_HAL_Driver/Src/stm32f7xx_hal_dma_ex.c ****   */
  68:/Users/Qianqian/Desktop/MPS/stm32lib/Drivers/STM32F7xx_HAL_Driver/Src/stm32f7xx_hal_dma_ex.c **** 
  69:/Users/Qianqian/Desktop/MPS/stm32lib/Drivers/STM32F7xx_HAL_Driver/Src/stm32f7xx_hal_dma_ex.c **** #ifdef HAL_DMA_MODULE_ENABLED
  70:/Users/Qianqian/Desktop/MPS/stm32lib/Drivers/STM32F7xx_HAL_Driver/Src/stm32f7xx_hal_dma_ex.c **** 
  71:/Users/Qianqian/Desktop/MPS/stm32lib/Drivers/STM32F7xx_HAL_Driver/Src/stm32f7xx_hal_dma_ex.c **** /* Private types -------------------------------------------------------------*/
  72:/Users/Qianqian/Desktop/MPS/stm32lib/Drivers/STM32F7xx_HAL_Driver/Src/stm32f7xx_hal_dma_ex.c **** /* Private variables ---------------------------------------------------------*/
  73:/Users/Qianqian/Desktop/MPS/stm32lib/Drivers/STM32F7xx_HAL_Driver/Src/stm32f7xx_hal_dma_ex.c **** /* Private Constants ---------------------------------------------------------*/
  74:/Users/Qianqian/Desktop/MPS/stm32lib/Drivers/STM32F7xx_HAL_Driver/Src/stm32f7xx_hal_dma_ex.c **** /* Private macros ------------------------------------------------------------*/
  75:/Users/Qianqian/Desktop/MPS/stm32lib/Drivers/STM32F7xx_HAL_Driver/Src/stm32f7xx_hal_dma_ex.c **** /* Private functions ---------------------------------------------------------*/
  76:/Users/Qianqian/Desktop/MPS/stm32lib/Drivers/STM32F7xx_HAL_Driver/Src/stm32f7xx_hal_dma_ex.c **** /** @addtogroup DMAEx_Private_Functions
  77:/Users/Qianqian/Desktop/MPS/stm32lib/Drivers/STM32F7xx_HAL_Driver/Src/stm32f7xx_hal_dma_ex.c ****   * @{
  78:/Users/Qianqian/Desktop/MPS/stm32lib/Drivers/STM32F7xx_HAL_Driver/Src/stm32f7xx_hal_dma_ex.c ****   */
  79:/Users/Qianqian/Desktop/MPS/stm32lib/Drivers/STM32F7xx_HAL_Driver/Src/stm32f7xx_hal_dma_ex.c **** 
  80:/Users/Qianqian/Desktop/MPS/stm32lib/Drivers/STM32F7xx_HAL_Driver/Src/stm32f7xx_hal_dma_ex.c **** static void DMA_MultiBufferSetConfig(DMA_HandleTypeDef *hdma, uint32_t SrcAddress, uint32_t DstAddr
  81:/Users/Qianqian/Desktop/MPS/stm32lib/Drivers/STM32F7xx_HAL_Driver/Src/stm32f7xx_hal_dma_ex.c **** 
  82:/Users/Qianqian/Desktop/MPS/stm32lib/Drivers/STM32F7xx_HAL_Driver/Src/stm32f7xx_hal_dma_ex.c **** /**
  83:/Users/Qianqian/Desktop/MPS/stm32lib/Drivers/STM32F7xx_HAL_Driver/Src/stm32f7xx_hal_dma_ex.c ****   * @}
  84:/Users/Qianqian/Desktop/MPS/stm32lib/Drivers/STM32F7xx_HAL_Driver/Src/stm32f7xx_hal_dma_ex.c ****   */
  85:/Users/Qianqian/Desktop/MPS/stm32lib/Drivers/STM32F7xx_HAL_Driver/Src/stm32f7xx_hal_dma_ex.c **** 
  86:/Users/Qianqian/Desktop/MPS/stm32lib/Drivers/STM32F7xx_HAL_Driver/Src/stm32f7xx_hal_dma_ex.c **** /* Exported functions ---------------------------------------------------------*/
  87:/Users/Qianqian/Desktop/MPS/stm32lib/Drivers/STM32F7xx_HAL_Driver/Src/stm32f7xx_hal_dma_ex.c **** 
  88:/Users/Qianqian/Desktop/MPS/stm32lib/Drivers/STM32F7xx_HAL_Driver/Src/stm32f7xx_hal_dma_ex.c **** /** @addtogroup DMAEx_Exported_Functions
  89:/Users/Qianqian/Desktop/MPS/stm32lib/Drivers/STM32F7xx_HAL_Driver/Src/stm32f7xx_hal_dma_ex.c ****   * @{
  90:/Users/Qianqian/Desktop/MPS/stm32lib/Drivers/STM32F7xx_HAL_Driver/Src/stm32f7xx_hal_dma_ex.c ****   */
  91:/Users/Qianqian/Desktop/MPS/stm32lib/Drivers/STM32F7xx_HAL_Driver/Src/stm32f7xx_hal_dma_ex.c **** 
  92:/Users/Qianqian/Desktop/MPS/stm32lib/Drivers/STM32F7xx_HAL_Driver/Src/stm32f7xx_hal_dma_ex.c **** 
  93:/Users/Qianqian/Desktop/MPS/stm32lib/Drivers/STM32F7xx_HAL_Driver/Src/stm32f7xx_hal_dma_ex.c **** /** @addtogroup DMAEx_Exported_Functions_Group1
  94:/Users/Qianqian/Desktop/MPS/stm32lib/Drivers/STM32F7xx_HAL_Driver/Src/stm32f7xx_hal_dma_ex.c ****   *
  95:/Users/Qianqian/Desktop/MPS/stm32lib/Drivers/STM32F7xx_HAL_Driver/Src/stm32f7xx_hal_dma_ex.c **** @verbatim
  96:/Users/Qianqian/Desktop/MPS/stm32lib/Drivers/STM32F7xx_HAL_Driver/Src/stm32f7xx_hal_dma_ex.c ****  ===============================================================================
  97:/Users/Qianqian/Desktop/MPS/stm32lib/Drivers/STM32F7xx_HAL_Driver/Src/stm32f7xx_hal_dma_ex.c ****                 #####  Extended features functions  #####
  98:/Users/Qianqian/Desktop/MPS/stm32lib/Drivers/STM32F7xx_HAL_Driver/Src/stm32f7xx_hal_dma_ex.c ****  ===============================================================================  
  99:/Users/Qianqian/Desktop/MPS/stm32lib/Drivers/STM32F7xx_HAL_Driver/Src/stm32f7xx_hal_dma_ex.c ****     [..]  This section provides functions allowing to:
 100:/Users/Qianqian/Desktop/MPS/stm32lib/Drivers/STM32F7xx_HAL_Driver/Src/stm32f7xx_hal_dma_ex.c ****       (+) Configure the source, destination address and data length and 
 101:/Users/Qianqian/Desktop/MPS/stm32lib/Drivers/STM32F7xx_HAL_Driver/Src/stm32f7xx_hal_dma_ex.c ****           Start MultiBuffer DMA transfer
 102:/Users/Qianqian/Desktop/MPS/stm32lib/Drivers/STM32F7xx_HAL_Driver/Src/stm32f7xx_hal_dma_ex.c ****       (+) Configure the source, destination address and data length and 
 103:/Users/Qianqian/Desktop/MPS/stm32lib/Drivers/STM32F7xx_HAL_Driver/Src/stm32f7xx_hal_dma_ex.c ****           Start MultiBuffer DMA transfer with interrupt
 104:/Users/Qianqian/Desktop/MPS/stm32lib/Drivers/STM32F7xx_HAL_Driver/Src/stm32f7xx_hal_dma_ex.c ****       (+) Change on the fly the memory0 or memory1 address.
 105:/Users/Qianqian/Desktop/MPS/stm32lib/Drivers/STM32F7xx_HAL_Driver/Src/stm32f7xx_hal_dma_ex.c ****       
 106:/Users/Qianqian/Desktop/MPS/stm32lib/Drivers/STM32F7xx_HAL_Driver/Src/stm32f7xx_hal_dma_ex.c **** @endverbatim
 107:/Users/Qianqian/Desktop/MPS/stm32lib/Drivers/STM32F7xx_HAL_Driver/Src/stm32f7xx_hal_dma_ex.c ****   * @{
 108:/Users/Qianqian/Desktop/MPS/stm32lib/Drivers/STM32F7xx_HAL_Driver/Src/stm32f7xx_hal_dma_ex.c ****   */
 109:/Users/Qianqian/Desktop/MPS/stm32lib/Drivers/STM32F7xx_HAL_Driver/Src/stm32f7xx_hal_dma_ex.c **** 
 110:/Users/Qianqian/Desktop/MPS/stm32lib/Drivers/STM32F7xx_HAL_Driver/Src/stm32f7xx_hal_dma_ex.c **** 
 111:/Users/Qianqian/Desktop/MPS/stm32lib/Drivers/STM32F7xx_HAL_Driver/Src/stm32f7xx_hal_dma_ex.c **** /**
 112:/Users/Qianqian/Desktop/MPS/stm32lib/Drivers/STM32F7xx_HAL_Driver/Src/stm32f7xx_hal_dma_ex.c ****   * @brief  Starts the multi_buffer DMA Transfer.
 113:/Users/Qianqian/Desktop/MPS/stm32lib/Drivers/STM32F7xx_HAL_Driver/Src/stm32f7xx_hal_dma_ex.c ****   * @param  hdma      : pointer to a DMA_HandleTypeDef structure that contains
 114:/Users/Qianqian/Desktop/MPS/stm32lib/Drivers/STM32F7xx_HAL_Driver/Src/stm32f7xx_hal_dma_ex.c ****   *                     the configuration information for the specified DMA Stream.  
 115:/Users/Qianqian/Desktop/MPS/stm32lib/Drivers/STM32F7xx_HAL_Driver/Src/stm32f7xx_hal_dma_ex.c ****   * @param  SrcAddress: The source memory Buffer address
 116:/Users/Qianqian/Desktop/MPS/stm32lib/Drivers/STM32F7xx_HAL_Driver/Src/stm32f7xx_hal_dma_ex.c ****   * @param  DstAddress: The destination memory Buffer address
 117:/Users/Qianqian/Desktop/MPS/stm32lib/Drivers/STM32F7xx_HAL_Driver/Src/stm32f7xx_hal_dma_ex.c ****   * @param  SecondMemAddress: The second memory Buffer address in case of multi buffer Transfer  
 118:/Users/Qianqian/Desktop/MPS/stm32lib/Drivers/STM32F7xx_HAL_Driver/Src/stm32f7xx_hal_dma_ex.c ****   * @param  DataLength: The length of data to be transferred from source to destination
 119:/Users/Qianqian/Desktop/MPS/stm32lib/Drivers/STM32F7xx_HAL_Driver/Src/stm32f7xx_hal_dma_ex.c ****   * @retval HAL status
 120:/Users/Qianqian/Desktop/MPS/stm32lib/Drivers/STM32F7xx_HAL_Driver/Src/stm32f7xx_hal_dma_ex.c ****   */
 121:/Users/Qianqian/Desktop/MPS/stm32lib/Drivers/STM32F7xx_HAL_Driver/Src/stm32f7xx_hal_dma_ex.c **** HAL_StatusTypeDef HAL_DMAEx_MultiBufferStart(DMA_HandleTypeDef *hdma, uint32_t SrcAddress, uint32_t
 122:/Users/Qianqian/Desktop/MPS/stm32lib/Drivers/STM32F7xx_HAL_Driver/Src/stm32f7xx_hal_dma_ex.c **** {
 123:/Users/Qianqian/Desktop/MPS/stm32lib/Drivers/STM32F7xx_HAL_Driver/Src/stm32f7xx_hal_dma_ex.c ****   HAL_StatusTypeDef status = HAL_OK;
 124:/Users/Qianqian/Desktop/MPS/stm32lib/Drivers/STM32F7xx_HAL_Driver/Src/stm32f7xx_hal_dma_ex.c ****   
 125:/Users/Qianqian/Desktop/MPS/stm32lib/Drivers/STM32F7xx_HAL_Driver/Src/stm32f7xx_hal_dma_ex.c ****   /* Check the parameters */
 126:/Users/Qianqian/Desktop/MPS/stm32lib/Drivers/STM32F7xx_HAL_Driver/Src/stm32f7xx_hal_dma_ex.c ****   assert_param(IS_DMA_BUFFER_SIZE(DataLength));
 127:/Users/Qianqian/Desktop/MPS/stm32lib/Drivers/STM32F7xx_HAL_Driver/Src/stm32f7xx_hal_dma_ex.c ****   
 128:/Users/Qianqian/Desktop/MPS/stm32lib/Drivers/STM32F7xx_HAL_Driver/Src/stm32f7xx_hal_dma_ex.c ****   /* Memory-to-memory transfer not supported in double buffering mode */
 129:/Users/Qianqian/Desktop/MPS/stm32lib/Drivers/STM32F7xx_HAL_Driver/Src/stm32f7xx_hal_dma_ex.c ****   if (hdma->Init.Direction == DMA_MEMORY_TO_MEMORY)
 130:/Users/Qianqian/Desktop/MPS/stm32lib/Drivers/STM32F7xx_HAL_Driver/Src/stm32f7xx_hal_dma_ex.c ****   {
 131:/Users/Qianqian/Desktop/MPS/stm32lib/Drivers/STM32F7xx_HAL_Driver/Src/stm32f7xx_hal_dma_ex.c ****     hdma->ErrorCode = HAL_DMA_ERROR_NOT_SUPPORTED;
 132:/Users/Qianqian/Desktop/MPS/stm32lib/Drivers/STM32F7xx_HAL_Driver/Src/stm32f7xx_hal_dma_ex.c ****     status = HAL_ERROR;
 133:/Users/Qianqian/Desktop/MPS/stm32lib/Drivers/STM32F7xx_HAL_Driver/Src/stm32f7xx_hal_dma_ex.c ****   }
 134:/Users/Qianqian/Desktop/MPS/stm32lib/Drivers/STM32F7xx_HAL_Driver/Src/stm32f7xx_hal_dma_ex.c ****   else
 135:/Users/Qianqian/Desktop/MPS/stm32lib/Drivers/STM32F7xx_HAL_Driver/Src/stm32f7xx_hal_dma_ex.c ****   {
 136:/Users/Qianqian/Desktop/MPS/stm32lib/Drivers/STM32F7xx_HAL_Driver/Src/stm32f7xx_hal_dma_ex.c ****     /* Process Locked */
 137:/Users/Qianqian/Desktop/MPS/stm32lib/Drivers/STM32F7xx_HAL_Driver/Src/stm32f7xx_hal_dma_ex.c ****     __HAL_LOCK(hdma);
 138:/Users/Qianqian/Desktop/MPS/stm32lib/Drivers/STM32F7xx_HAL_Driver/Src/stm32f7xx_hal_dma_ex.c ****     
 139:/Users/Qianqian/Desktop/MPS/stm32lib/Drivers/STM32F7xx_HAL_Driver/Src/stm32f7xx_hal_dma_ex.c ****     if(HAL_DMA_STATE_READY == hdma->State)
 140:/Users/Qianqian/Desktop/MPS/stm32lib/Drivers/STM32F7xx_HAL_Driver/Src/stm32f7xx_hal_dma_ex.c ****     {
 141:/Users/Qianqian/Desktop/MPS/stm32lib/Drivers/STM32F7xx_HAL_Driver/Src/stm32f7xx_hal_dma_ex.c ****       /* Change DMA peripheral state */
 142:/Users/Qianqian/Desktop/MPS/stm32lib/Drivers/STM32F7xx_HAL_Driver/Src/stm32f7xx_hal_dma_ex.c ****       hdma->State = HAL_DMA_STATE_BUSY; 
 143:/Users/Qianqian/Desktop/MPS/stm32lib/Drivers/STM32F7xx_HAL_Driver/Src/stm32f7xx_hal_dma_ex.c ****       
 144:/Users/Qianqian/Desktop/MPS/stm32lib/Drivers/STM32F7xx_HAL_Driver/Src/stm32f7xx_hal_dma_ex.c ****       /* Enable the double buffer mode */
 145:/Users/Qianqian/Desktop/MPS/stm32lib/Drivers/STM32F7xx_HAL_Driver/Src/stm32f7xx_hal_dma_ex.c ****       hdma->Instance->CR |= (uint32_t)DMA_SxCR_DBM;
 146:/Users/Qianqian/Desktop/MPS/stm32lib/Drivers/STM32F7xx_HAL_Driver/Src/stm32f7xx_hal_dma_ex.c ****       
 147:/Users/Qianqian/Desktop/MPS/stm32lib/Drivers/STM32F7xx_HAL_Driver/Src/stm32f7xx_hal_dma_ex.c ****       /* Configure DMA Stream destination address */
 148:/Users/Qianqian/Desktop/MPS/stm32lib/Drivers/STM32F7xx_HAL_Driver/Src/stm32f7xx_hal_dma_ex.c ****       hdma->Instance->M1AR = SecondMemAddress;
 149:/Users/Qianqian/Desktop/MPS/stm32lib/Drivers/STM32F7xx_HAL_Driver/Src/stm32f7xx_hal_dma_ex.c ****       
 150:/Users/Qianqian/Desktop/MPS/stm32lib/Drivers/STM32F7xx_HAL_Driver/Src/stm32f7xx_hal_dma_ex.c ****       /* Configure the source, destination address and the data length */
 151:/Users/Qianqian/Desktop/MPS/stm32lib/Drivers/STM32F7xx_HAL_Driver/Src/stm32f7xx_hal_dma_ex.c ****       DMA_MultiBufferSetConfig(hdma, SrcAddress, DstAddress, DataLength);
 152:/Users/Qianqian/Desktop/MPS/stm32lib/Drivers/STM32F7xx_HAL_Driver/Src/stm32f7xx_hal_dma_ex.c ****       
 153:/Users/Qianqian/Desktop/MPS/stm32lib/Drivers/STM32F7xx_HAL_Driver/Src/stm32f7xx_hal_dma_ex.c ****       /* Enable the peripheral */
 154:/Users/Qianqian/Desktop/MPS/stm32lib/Drivers/STM32F7xx_HAL_Driver/Src/stm32f7xx_hal_dma_ex.c ****       __HAL_DMA_ENABLE(hdma);
 155:/Users/Qianqian/Desktop/MPS/stm32lib/Drivers/STM32F7xx_HAL_Driver/Src/stm32f7xx_hal_dma_ex.c ****     }
 156:/Users/Qianqian/Desktop/MPS/stm32lib/Drivers/STM32F7xx_HAL_Driver/Src/stm32f7xx_hal_dma_ex.c ****     else
 157:/Users/Qianqian/Desktop/MPS/stm32lib/Drivers/STM32F7xx_HAL_Driver/Src/stm32f7xx_hal_dma_ex.c ****     {
 158:/Users/Qianqian/Desktop/MPS/stm32lib/Drivers/STM32F7xx_HAL_Driver/Src/stm32f7xx_hal_dma_ex.c ****       /* Return error status */
 159:/Users/Qianqian/Desktop/MPS/stm32lib/Drivers/STM32F7xx_HAL_Driver/Src/stm32f7xx_hal_dma_ex.c ****       status = HAL_BUSY;
 160:/Users/Qianqian/Desktop/MPS/stm32lib/Drivers/STM32F7xx_HAL_Driver/Src/stm32f7xx_hal_dma_ex.c ****     }
 161:/Users/Qianqian/Desktop/MPS/stm32lib/Drivers/STM32F7xx_HAL_Driver/Src/stm32f7xx_hal_dma_ex.c ****   }
 162:/Users/Qianqian/Desktop/MPS/stm32lib/Drivers/STM32F7xx_HAL_Driver/Src/stm32f7xx_hal_dma_ex.c ****   return status;
 163:/Users/Qianqian/Desktop/MPS/stm32lib/Drivers/STM32F7xx_HAL_Driver/Src/stm32f7xx_hal_dma_ex.c **** }
 164:/Users/Qianqian/Desktop/MPS/stm32lib/Drivers/STM32F7xx_HAL_Driver/Src/stm32f7xx_hal_dma_ex.c **** 
 165:/Users/Qianqian/Desktop/MPS/stm32lib/Drivers/STM32F7xx_HAL_Driver/Src/stm32f7xx_hal_dma_ex.c **** /**
 166:/Users/Qianqian/Desktop/MPS/stm32lib/Drivers/STM32F7xx_HAL_Driver/Src/stm32f7xx_hal_dma_ex.c ****   * @brief  Starts the multi_buffer DMA Transfer with interrupt enabled.
 167:/Users/Qianqian/Desktop/MPS/stm32lib/Drivers/STM32F7xx_HAL_Driver/Src/stm32f7xx_hal_dma_ex.c ****   * @param  hdma:       pointer to a DMA_HandleTypeDef structure that contains
 168:/Users/Qianqian/Desktop/MPS/stm32lib/Drivers/STM32F7xx_HAL_Driver/Src/stm32f7xx_hal_dma_ex.c ****   *                     the configuration information for the specified DMA Stream.  
 169:/Users/Qianqian/Desktop/MPS/stm32lib/Drivers/STM32F7xx_HAL_Driver/Src/stm32f7xx_hal_dma_ex.c ****   * @param  SrcAddress: The source memory Buffer address
 170:/Users/Qianqian/Desktop/MPS/stm32lib/Drivers/STM32F7xx_HAL_Driver/Src/stm32f7xx_hal_dma_ex.c ****   * @param  DstAddress: The destination memory Buffer address
 171:/Users/Qianqian/Desktop/MPS/stm32lib/Drivers/STM32F7xx_HAL_Driver/Src/stm32f7xx_hal_dma_ex.c ****   * @param  SecondMemAddress: The second memory Buffer address in case of multi buffer Transfer  
 172:/Users/Qianqian/Desktop/MPS/stm32lib/Drivers/STM32F7xx_HAL_Driver/Src/stm32f7xx_hal_dma_ex.c ****   * @param  DataLength: The length of data to be transferred from source to destination
 173:/Users/Qianqian/Desktop/MPS/stm32lib/Drivers/STM32F7xx_HAL_Driver/Src/stm32f7xx_hal_dma_ex.c ****   * @retval HAL status
 174:/Users/Qianqian/Desktop/MPS/stm32lib/Drivers/STM32F7xx_HAL_Driver/Src/stm32f7xx_hal_dma_ex.c ****   */
 175:/Users/Qianqian/Desktop/MPS/stm32lib/Drivers/STM32F7xx_HAL_Driver/Src/stm32f7xx_hal_dma_ex.c **** HAL_StatusTypeDef HAL_DMAEx_MultiBufferStart_IT(DMA_HandleTypeDef *hdma, uint32_t SrcAddress, uint3
 176:/Users/Qianqian/Desktop/MPS/stm32lib/Drivers/STM32F7xx_HAL_Driver/Src/stm32f7xx_hal_dma_ex.c **** {
 177:/Users/Qianqian/Desktop/MPS/stm32lib/Drivers/STM32F7xx_HAL_Driver/Src/stm32f7xx_hal_dma_ex.c ****   HAL_StatusTypeDef status = HAL_OK;
 178:/Users/Qianqian/Desktop/MPS/stm32lib/Drivers/STM32F7xx_HAL_Driver/Src/stm32f7xx_hal_dma_ex.c ****   
 179:/Users/Qianqian/Desktop/MPS/stm32lib/Drivers/STM32F7xx_HAL_Driver/Src/stm32f7xx_hal_dma_ex.c ****   /* Check the parameters */
 180:/Users/Qianqian/Desktop/MPS/stm32lib/Drivers/STM32F7xx_HAL_Driver/Src/stm32f7xx_hal_dma_ex.c ****   assert_param(IS_DMA_BUFFER_SIZE(DataLength));
 181:/Users/Qianqian/Desktop/MPS/stm32lib/Drivers/STM32F7xx_HAL_Driver/Src/stm32f7xx_hal_dma_ex.c ****   
 182:/Users/Qianqian/Desktop/MPS/stm32lib/Drivers/STM32F7xx_HAL_Driver/Src/stm32f7xx_hal_dma_ex.c ****   /* Memory-to-memory transfer not supported in double buffering mode */
 183:/Users/Qianqian/Desktop/MPS/stm32lib/Drivers/STM32F7xx_HAL_Driver/Src/stm32f7xx_hal_dma_ex.c ****   if (hdma->Init.Direction == DMA_MEMORY_TO_MEMORY)
 184:/Users/Qianqian/Desktop/MPS/stm32lib/Drivers/STM32F7xx_HAL_Driver/Src/stm32f7xx_hal_dma_ex.c ****   {
 185:/Users/Qianqian/Desktop/MPS/stm32lib/Drivers/STM32F7xx_HAL_Driver/Src/stm32f7xx_hal_dma_ex.c ****     hdma->ErrorCode = HAL_DMA_ERROR_NOT_SUPPORTED;
 186:/Users/Qianqian/Desktop/MPS/stm32lib/Drivers/STM32F7xx_HAL_Driver/Src/stm32f7xx_hal_dma_ex.c ****     return HAL_ERROR;
 187:/Users/Qianqian/Desktop/MPS/stm32lib/Drivers/STM32F7xx_HAL_Driver/Src/stm32f7xx_hal_dma_ex.c ****   }
 188:/Users/Qianqian/Desktop/MPS/stm32lib/Drivers/STM32F7xx_HAL_Driver/Src/stm32f7xx_hal_dma_ex.c ****   
 189:/Users/Qianqian/Desktop/MPS/stm32lib/Drivers/STM32F7xx_HAL_Driver/Src/stm32f7xx_hal_dma_ex.c ****   /* Process locked */
 190:/Users/Qianqian/Desktop/MPS/stm32lib/Drivers/STM32F7xx_HAL_Driver/Src/stm32f7xx_hal_dma_ex.c ****   __HAL_LOCK(hdma);
 191:/Users/Qianqian/Desktop/MPS/stm32lib/Drivers/STM32F7xx_HAL_Driver/Src/stm32f7xx_hal_dma_ex.c ****   
 192:/Users/Qianqian/Desktop/MPS/stm32lib/Drivers/STM32F7xx_HAL_Driver/Src/stm32f7xx_hal_dma_ex.c ****   if(HAL_DMA_STATE_READY == hdma->State)
 193:/Users/Qianqian/Desktop/MPS/stm32lib/Drivers/STM32F7xx_HAL_Driver/Src/stm32f7xx_hal_dma_ex.c ****   {
 194:/Users/Qianqian/Desktop/MPS/stm32lib/Drivers/STM32F7xx_HAL_Driver/Src/stm32f7xx_hal_dma_ex.c ****     /* Change DMA peripheral state */
 195:/Users/Qianqian/Desktop/MPS/stm32lib/Drivers/STM32F7xx_HAL_Driver/Src/stm32f7xx_hal_dma_ex.c ****     hdma->State = HAL_DMA_STATE_BUSY;
 196:/Users/Qianqian/Desktop/MPS/stm32lib/Drivers/STM32F7xx_HAL_Driver/Src/stm32f7xx_hal_dma_ex.c ****     
 197:/Users/Qianqian/Desktop/MPS/stm32lib/Drivers/STM32F7xx_HAL_Driver/Src/stm32f7xx_hal_dma_ex.c ****     /* Initialize the error code */
 198:/Users/Qianqian/Desktop/MPS/stm32lib/Drivers/STM32F7xx_HAL_Driver/Src/stm32f7xx_hal_dma_ex.c ****     hdma->ErrorCode = HAL_DMA_ERROR_NONE;
 199:/Users/Qianqian/Desktop/MPS/stm32lib/Drivers/STM32F7xx_HAL_Driver/Src/stm32f7xx_hal_dma_ex.c ****     
 200:/Users/Qianqian/Desktop/MPS/stm32lib/Drivers/STM32F7xx_HAL_Driver/Src/stm32f7xx_hal_dma_ex.c ****     /* Enable the Double buffer mode */
 201:/Users/Qianqian/Desktop/MPS/stm32lib/Drivers/STM32F7xx_HAL_Driver/Src/stm32f7xx_hal_dma_ex.c ****     hdma->Instance->CR |= (uint32_t)DMA_SxCR_DBM;
 202:/Users/Qianqian/Desktop/MPS/stm32lib/Drivers/STM32F7xx_HAL_Driver/Src/stm32f7xx_hal_dma_ex.c ****     
 203:/Users/Qianqian/Desktop/MPS/stm32lib/Drivers/STM32F7xx_HAL_Driver/Src/stm32f7xx_hal_dma_ex.c ****     /* Configure DMA Stream destination address */
 204:/Users/Qianqian/Desktop/MPS/stm32lib/Drivers/STM32F7xx_HAL_Driver/Src/stm32f7xx_hal_dma_ex.c ****     hdma->Instance->M1AR = SecondMemAddress;
 205:/Users/Qianqian/Desktop/MPS/stm32lib/Drivers/STM32F7xx_HAL_Driver/Src/stm32f7xx_hal_dma_ex.c ****     
 206:/Users/Qianqian/Desktop/MPS/stm32lib/Drivers/STM32F7xx_HAL_Driver/Src/stm32f7xx_hal_dma_ex.c ****     /* Configure the source, destination address and the data length */
 207:/Users/Qianqian/Desktop/MPS/stm32lib/Drivers/STM32F7xx_HAL_Driver/Src/stm32f7xx_hal_dma_ex.c ****     DMA_MultiBufferSetConfig(hdma, SrcAddress, DstAddress, DataLength); 
 208:/Users/Qianqian/Desktop/MPS/stm32lib/Drivers/STM32F7xx_HAL_Driver/Src/stm32f7xx_hal_dma_ex.c ****     
 209:/Users/Qianqian/Desktop/MPS/stm32lib/Drivers/STM32F7xx_HAL_Driver/Src/stm32f7xx_hal_dma_ex.c ****     /* Clear all flags */
 210:/Users/Qianqian/Desktop/MPS/stm32lib/Drivers/STM32F7xx_HAL_Driver/Src/stm32f7xx_hal_dma_ex.c ****     __HAL_DMA_CLEAR_FLAG (hdma, __HAL_DMA_GET_TC_FLAG_INDEX(hdma));
 211:/Users/Qianqian/Desktop/MPS/stm32lib/Drivers/STM32F7xx_HAL_Driver/Src/stm32f7xx_hal_dma_ex.c ****     __HAL_DMA_CLEAR_FLAG (hdma, __HAL_DMA_GET_HT_FLAG_INDEX(hdma));
 212:/Users/Qianqian/Desktop/MPS/stm32lib/Drivers/STM32F7xx_HAL_Driver/Src/stm32f7xx_hal_dma_ex.c ****     __HAL_DMA_CLEAR_FLAG (hdma, __HAL_DMA_GET_TE_FLAG_INDEX(hdma));
 213:/Users/Qianqian/Desktop/MPS/stm32lib/Drivers/STM32F7xx_HAL_Driver/Src/stm32f7xx_hal_dma_ex.c ****     __HAL_DMA_CLEAR_FLAG (hdma, __HAL_DMA_GET_DME_FLAG_INDEX(hdma));
 214:/Users/Qianqian/Desktop/MPS/stm32lib/Drivers/STM32F7xx_HAL_Driver/Src/stm32f7xx_hal_dma_ex.c ****     __HAL_DMA_CLEAR_FLAG (hdma, __HAL_DMA_GET_FE_FLAG_INDEX(hdma));
 215:/Users/Qianqian/Desktop/MPS/stm32lib/Drivers/STM32F7xx_HAL_Driver/Src/stm32f7xx_hal_dma_ex.c ****     
 216:/Users/Qianqian/Desktop/MPS/stm32lib/Drivers/STM32F7xx_HAL_Driver/Src/stm32f7xx_hal_dma_ex.c ****     /* Enable Common interrupts*/
 217:/Users/Qianqian/Desktop/MPS/stm32lib/Drivers/STM32F7xx_HAL_Driver/Src/stm32f7xx_hal_dma_ex.c ****     hdma->Instance->CR  |= DMA_IT_TC | DMA_IT_TE | DMA_IT_DME;
 218:/Users/Qianqian/Desktop/MPS/stm32lib/Drivers/STM32F7xx_HAL_Driver/Src/stm32f7xx_hal_dma_ex.c ****     hdma->Instance->FCR |= DMA_IT_FE;
 219:/Users/Qianqian/Desktop/MPS/stm32lib/Drivers/STM32F7xx_HAL_Driver/Src/stm32f7xx_hal_dma_ex.c ****     
 220:/Users/Qianqian/Desktop/MPS/stm32lib/Drivers/STM32F7xx_HAL_Driver/Src/stm32f7xx_hal_dma_ex.c ****     if((hdma->XferHalfCpltCallback != NULL) || (hdma->XferM1HalfCpltCallback != NULL))
 221:/Users/Qianqian/Desktop/MPS/stm32lib/Drivers/STM32F7xx_HAL_Driver/Src/stm32f7xx_hal_dma_ex.c ****     {
 222:/Users/Qianqian/Desktop/MPS/stm32lib/Drivers/STM32F7xx_HAL_Driver/Src/stm32f7xx_hal_dma_ex.c ****       hdma->Instance->CR  |= DMA_IT_HT;
 223:/Users/Qianqian/Desktop/MPS/stm32lib/Drivers/STM32F7xx_HAL_Driver/Src/stm32f7xx_hal_dma_ex.c ****     }
 224:/Users/Qianqian/Desktop/MPS/stm32lib/Drivers/STM32F7xx_HAL_Driver/Src/stm32f7xx_hal_dma_ex.c ****     
 225:/Users/Qianqian/Desktop/MPS/stm32lib/Drivers/STM32F7xx_HAL_Driver/Src/stm32f7xx_hal_dma_ex.c ****     /* Enable the peripheral */
 226:/Users/Qianqian/Desktop/MPS/stm32lib/Drivers/STM32F7xx_HAL_Driver/Src/stm32f7xx_hal_dma_ex.c ****     __HAL_DMA_ENABLE(hdma); 
 227:/Users/Qianqian/Desktop/MPS/stm32lib/Drivers/STM32F7xx_HAL_Driver/Src/stm32f7xx_hal_dma_ex.c ****   }
 228:/Users/Qianqian/Desktop/MPS/stm32lib/Drivers/STM32F7xx_HAL_Driver/Src/stm32f7xx_hal_dma_ex.c ****   else
 229:/Users/Qianqian/Desktop/MPS/stm32lib/Drivers/STM32F7xx_HAL_Driver/Src/stm32f7xx_hal_dma_ex.c ****   {     
 230:/Users/Qianqian/Desktop/MPS/stm32lib/Drivers/STM32F7xx_HAL_Driver/Src/stm32f7xx_hal_dma_ex.c ****     /* Process unlocked */
 231:/Users/Qianqian/Desktop/MPS/stm32lib/Drivers/STM32F7xx_HAL_Driver/Src/stm32f7xx_hal_dma_ex.c ****     __HAL_UNLOCK(hdma);	  
 232:/Users/Qianqian/Desktop/MPS/stm32lib/Drivers/STM32F7xx_HAL_Driver/Src/stm32f7xx_hal_dma_ex.c ****     
 233:/Users/Qianqian/Desktop/MPS/stm32lib/Drivers/STM32F7xx_HAL_Driver/Src/stm32f7xx_hal_dma_ex.c ****     /* Return error status */
 234:/Users/Qianqian/Desktop/MPS/stm32lib/Drivers/STM32F7xx_HAL_Driver/Src/stm32f7xx_hal_dma_ex.c ****     status = HAL_BUSY;
 235:/Users/Qianqian/Desktop/MPS/stm32lib/Drivers/STM32F7xx_HAL_Driver/Src/stm32f7xx_hal_dma_ex.c ****   }  
 236:/Users/Qianqian/Desktop/MPS/stm32lib/Drivers/STM32F7xx_HAL_Driver/Src/stm32f7xx_hal_dma_ex.c ****   return status; 
 237:/Users/Qianqian/Desktop/MPS/stm32lib/Drivers/STM32F7xx_HAL_Driver/Src/stm32f7xx_hal_dma_ex.c **** }
 238:/Users/Qianqian/Desktop/MPS/stm32lib/Drivers/STM32F7xx_HAL_Driver/Src/stm32f7xx_hal_dma_ex.c **** 
 239:/Users/Qianqian/Desktop/MPS/stm32lib/Drivers/STM32F7xx_HAL_Driver/Src/stm32f7xx_hal_dma_ex.c **** /**
 240:/Users/Qianqian/Desktop/MPS/stm32lib/Drivers/STM32F7xx_HAL_Driver/Src/stm32f7xx_hal_dma_ex.c ****   * @brief  Change the memory0 or memory1 address on the fly.
 241:/Users/Qianqian/Desktop/MPS/stm32lib/Drivers/STM32F7xx_HAL_Driver/Src/stm32f7xx_hal_dma_ex.c ****   * @param  hdma:       pointer to a DMA_HandleTypeDef structure that contains
 242:/Users/Qianqian/Desktop/MPS/stm32lib/Drivers/STM32F7xx_HAL_Driver/Src/stm32f7xx_hal_dma_ex.c ****   *                     the configuration information for the specified DMA Stream.  
 243:/Users/Qianqian/Desktop/MPS/stm32lib/Drivers/STM32F7xx_HAL_Driver/Src/stm32f7xx_hal_dma_ex.c ****   * @param  Address:    The new address
 244:/Users/Qianqian/Desktop/MPS/stm32lib/Drivers/STM32F7xx_HAL_Driver/Src/stm32f7xx_hal_dma_ex.c ****   * @param  memory:     the memory to be changed, This parameter can be one of 
 245:/Users/Qianqian/Desktop/MPS/stm32lib/Drivers/STM32F7xx_HAL_Driver/Src/stm32f7xx_hal_dma_ex.c ****   *                     the following values:
 246:/Users/Qianqian/Desktop/MPS/stm32lib/Drivers/STM32F7xx_HAL_Driver/Src/stm32f7xx_hal_dma_ex.c ****   *                      MEMORY0 /
 247:/Users/Qianqian/Desktop/MPS/stm32lib/Drivers/STM32F7xx_HAL_Driver/Src/stm32f7xx_hal_dma_ex.c ****   *                      MEMORY1
 248:/Users/Qianqian/Desktop/MPS/stm32lib/Drivers/STM32F7xx_HAL_Driver/Src/stm32f7xx_hal_dma_ex.c ****   * @note   The MEMORY0 address can be changed only when the current transfer use
 249:/Users/Qianqian/Desktop/MPS/stm32lib/Drivers/STM32F7xx_HAL_Driver/Src/stm32f7xx_hal_dma_ex.c ****   *         MEMORY1 and the MEMORY1 address can be changed only when the current 
 250:/Users/Qianqian/Desktop/MPS/stm32lib/Drivers/STM32F7xx_HAL_Driver/Src/stm32f7xx_hal_dma_ex.c ****   *         transfer use MEMORY0.
 251:/Users/Qianqian/Desktop/MPS/stm32lib/Drivers/STM32F7xx_HAL_Driver/Src/stm32f7xx_hal_dma_ex.c ****   * @retval HAL status
 252:/Users/Qianqian/Desktop/MPS/stm32lib/Drivers/STM32F7xx_HAL_Driver/Src/stm32f7xx_hal_dma_ex.c ****   */
 253:/Users/Qianqian/Desktop/MPS/stm32lib/Drivers/STM32F7xx_HAL_Driver/Src/stm32f7xx_hal_dma_ex.c **** HAL_StatusTypeDef HAL_DMAEx_ChangeMemory(DMA_HandleTypeDef *hdma, uint32_t Address, HAL_DMA_MemoryT
 254:/Users/Qianqian/Desktop/MPS/stm32lib/Drivers/STM32F7xx_HAL_Driver/Src/stm32f7xx_hal_dma_ex.c **** {
 255:/Users/Qianqian/Desktop/MPS/stm32lib/Drivers/STM32F7xx_HAL_Driver/Src/stm32f7xx_hal_dma_ex.c ****   if(memory == MEMORY0)
 256:/Users/Qianqian/Desktop/MPS/stm32lib/Drivers/STM32F7xx_HAL_Driver/Src/stm32f7xx_hal_dma_ex.c ****   {
 257:/Users/Qianqian/Desktop/MPS/stm32lib/Drivers/STM32F7xx_HAL_Driver/Src/stm32f7xx_hal_dma_ex.c ****     /* change the memory0 address */
 258:/Users/Qianqian/Desktop/MPS/stm32lib/Drivers/STM32F7xx_HAL_Driver/Src/stm32f7xx_hal_dma_ex.c ****     hdma->Instance->M0AR = Address;
 259:/Users/Qianqian/Desktop/MPS/stm32lib/Drivers/STM32F7xx_HAL_Driver/Src/stm32f7xx_hal_dma_ex.c ****   }
 260:/Users/Qianqian/Desktop/MPS/stm32lib/Drivers/STM32F7xx_HAL_Driver/Src/stm32f7xx_hal_dma_ex.c ****   else
 261:/Users/Qianqian/Desktop/MPS/stm32lib/Drivers/STM32F7xx_HAL_Driver/Src/stm32f7xx_hal_dma_ex.c ****   {
 262:/Users/Qianqian/Desktop/MPS/stm32lib/Drivers/STM32F7xx_HAL_Driver/Src/stm32f7xx_hal_dma_ex.c ****     /* change the memory1 address */
 263:/Users/Qianqian/Desktop/MPS/stm32lib/Drivers/STM32F7xx_HAL_Driver/Src/stm32f7xx_hal_dma_ex.c ****     hdma->Instance->M1AR = Address;
 264:/Users/Qianqian/Desktop/MPS/stm32lib/Drivers/STM32F7xx_HAL_Driver/Src/stm32f7xx_hal_dma_ex.c ****   }
 265:/Users/Qianqian/Desktop/MPS/stm32lib/Drivers/STM32F7xx_HAL_Driver/Src/stm32f7xx_hal_dma_ex.c ****   
 266:/Users/Qianqian/Desktop/MPS/stm32lib/Drivers/STM32F7xx_HAL_Driver/Src/stm32f7xx_hal_dma_ex.c ****   return HAL_OK;
 267:/Users/Qianqian/Desktop/MPS/stm32lib/Drivers/STM32F7xx_HAL_Driver/Src/stm32f7xx_hal_dma_ex.c **** }
 268:/Users/Qianqian/Desktop/MPS/stm32lib/Drivers/STM32F7xx_HAL_Driver/Src/stm32f7xx_hal_dma_ex.c **** 
 269:/Users/Qianqian/Desktop/MPS/stm32lib/Drivers/STM32F7xx_HAL_Driver/Src/stm32f7xx_hal_dma_ex.c **** /**
 270:/Users/Qianqian/Desktop/MPS/stm32lib/Drivers/STM32F7xx_HAL_Driver/Src/stm32f7xx_hal_dma_ex.c ****   * @}
 271:/Users/Qianqian/Desktop/MPS/stm32lib/Drivers/STM32F7xx_HAL_Driver/Src/stm32f7xx_hal_dma_ex.c ****   */
 272:/Users/Qianqian/Desktop/MPS/stm32lib/Drivers/STM32F7xx_HAL_Driver/Src/stm32f7xx_hal_dma_ex.c **** 
 273:/Users/Qianqian/Desktop/MPS/stm32lib/Drivers/STM32F7xx_HAL_Driver/Src/stm32f7xx_hal_dma_ex.c **** /**
 274:/Users/Qianqian/Desktop/MPS/stm32lib/Drivers/STM32F7xx_HAL_Driver/Src/stm32f7xx_hal_dma_ex.c ****   * @}
 275:/Users/Qianqian/Desktop/MPS/stm32lib/Drivers/STM32F7xx_HAL_Driver/Src/stm32f7xx_hal_dma_ex.c ****   */
 276:/Users/Qianqian/Desktop/MPS/stm32lib/Drivers/STM32F7xx_HAL_Driver/Src/stm32f7xx_hal_dma_ex.c **** 
 277:/Users/Qianqian/Desktop/MPS/stm32lib/Drivers/STM32F7xx_HAL_Driver/Src/stm32f7xx_hal_dma_ex.c **** /** @addtogroup DMAEx_Private_Functions
 278:/Users/Qianqian/Desktop/MPS/stm32lib/Drivers/STM32F7xx_HAL_Driver/Src/stm32f7xx_hal_dma_ex.c ****   * @{
 279:/Users/Qianqian/Desktop/MPS/stm32lib/Drivers/STM32F7xx_HAL_Driver/Src/stm32f7xx_hal_dma_ex.c ****   */
 280:/Users/Qianqian/Desktop/MPS/stm32lib/Drivers/STM32F7xx_HAL_Driver/Src/stm32f7xx_hal_dma_ex.c **** 
 281:/Users/Qianqian/Desktop/MPS/stm32lib/Drivers/STM32F7xx_HAL_Driver/Src/stm32f7xx_hal_dma_ex.c **** /**
 282:/Users/Qianqian/Desktop/MPS/stm32lib/Drivers/STM32F7xx_HAL_Driver/Src/stm32f7xx_hal_dma_ex.c ****   * @brief  Set the DMA Transfer parameter.
 283:/Users/Qianqian/Desktop/MPS/stm32lib/Drivers/STM32F7xx_HAL_Driver/Src/stm32f7xx_hal_dma_ex.c ****   * @param  hdma:       pointer to a DMA_HandleTypeDef structure that contains
 284:/Users/Qianqian/Desktop/MPS/stm32lib/Drivers/STM32F7xx_HAL_Driver/Src/stm32f7xx_hal_dma_ex.c ****   *                     the configuration information for the specified DMA Stream.  
 285:/Users/Qianqian/Desktop/MPS/stm32lib/Drivers/STM32F7xx_HAL_Driver/Src/stm32f7xx_hal_dma_ex.c ****   * @param  SrcAddress: The source memory Buffer address
 286:/Users/Qianqian/Desktop/MPS/stm32lib/Drivers/STM32F7xx_HAL_Driver/Src/stm32f7xx_hal_dma_ex.c ****   * @param  DstAddress: The destination memory Buffer address
 287:/Users/Qianqian/Desktop/MPS/stm32lib/Drivers/STM32F7xx_HAL_Driver/Src/stm32f7xx_hal_dma_ex.c ****   * @param  DataLength: The length of data to be transferred from source to destination
 288:/Users/Qianqian/Desktop/MPS/stm32lib/Drivers/STM32F7xx_HAL_Driver/Src/stm32f7xx_hal_dma_ex.c ****   * @retval HAL status
 289:/Users/Qianqian/Desktop/MPS/stm32lib/Drivers/STM32F7xx_HAL_Driver/Src/stm32f7xx_hal_dma_ex.c ****   */
 290:/Users/Qianqian/Desktop/MPS/stm32lib/Drivers/STM32F7xx_HAL_Driver/Src/stm32f7xx_hal_dma_ex.c **** static void DMA_MultiBufferSetConfig(DMA_HandleTypeDef *hdma, uint32_t SrcAddress, uint32_t DstAddr
 291:/Users/Qianqian/Desktop/MPS/stm32lib/Drivers/STM32F7xx_HAL_Driver/Src/stm32f7xx_hal_dma_ex.c **** {
  26              		.loc 1 291 0
  27              		.cfi_startproc
  28              		@ args = 0, pretend = 0, frame = 0
  29              		@ frame_needed = 0, uses_anonymous_args = 0
  30              		@ link register save eliminated.
  31              	.LVL0:
  32 0000 10B4     		push	{r4}
  33              		.cfi_def_cfa_offset 4
  34              		.cfi_offset 4, -4
 292:/Users/Qianqian/Desktop/MPS/stm32lib/Drivers/STM32F7xx_HAL_Driver/Src/stm32f7xx_hal_dma_ex.c ****   /* Configure DMA Stream data length */
 293:/Users/Qianqian/Desktop/MPS/stm32lib/Drivers/STM32F7xx_HAL_Driver/Src/stm32f7xx_hal_dma_ex.c ****   hdma->Instance->NDTR = DataLength;
  35              		.loc 1 293 0
  36 0002 0468     		ldr	r4, [r0]
  37 0004 6360     		str	r3, [r4, #4]
 294:/Users/Qianqian/Desktop/MPS/stm32lib/Drivers/STM32F7xx_HAL_Driver/Src/stm32f7xx_hal_dma_ex.c ****   
 295:/Users/Qianqian/Desktop/MPS/stm32lib/Drivers/STM32F7xx_HAL_Driver/Src/stm32f7xx_hal_dma_ex.c ****   /* Peripheral to Memory */
 296:/Users/Qianqian/Desktop/MPS/stm32lib/Drivers/STM32F7xx_HAL_Driver/Src/stm32f7xx_hal_dma_ex.c ****   if((hdma->Init.Direction) == DMA_MEMORY_TO_PERIPH)
  38              		.loc 1 296 0
  39 0006 8368     		ldr	r3, [r0, #8]
  40              	.LVL1:
  41 0008 402B     		cmp	r3, #64
  42 000a 06D0     		beq	.L5
 297:/Users/Qianqian/Desktop/MPS/stm32lib/Drivers/STM32F7xx_HAL_Driver/Src/stm32f7xx_hal_dma_ex.c ****   {
 298:/Users/Qianqian/Desktop/MPS/stm32lib/Drivers/STM32F7xx_HAL_Driver/Src/stm32f7xx_hal_dma_ex.c ****     /* Configure DMA Stream destination address */
 299:/Users/Qianqian/Desktop/MPS/stm32lib/Drivers/STM32F7xx_HAL_Driver/Src/stm32f7xx_hal_dma_ex.c ****     hdma->Instance->PAR = DstAddress;
 300:/Users/Qianqian/Desktop/MPS/stm32lib/Drivers/STM32F7xx_HAL_Driver/Src/stm32f7xx_hal_dma_ex.c ****     
 301:/Users/Qianqian/Desktop/MPS/stm32lib/Drivers/STM32F7xx_HAL_Driver/Src/stm32f7xx_hal_dma_ex.c ****     /* Configure DMA Stream source address */
 302:/Users/Qianqian/Desktop/MPS/stm32lib/Drivers/STM32F7xx_HAL_Driver/Src/stm32f7xx_hal_dma_ex.c ****     hdma->Instance->M0AR = SrcAddress;
 303:/Users/Qianqian/Desktop/MPS/stm32lib/Drivers/STM32F7xx_HAL_Driver/Src/stm32f7xx_hal_dma_ex.c ****   }
 304:/Users/Qianqian/Desktop/MPS/stm32lib/Drivers/STM32F7xx_HAL_Driver/Src/stm32f7xx_hal_dma_ex.c ****   /* Memory to Peripheral */
 305:/Users/Qianqian/Desktop/MPS/stm32lib/Drivers/STM32F7xx_HAL_Driver/Src/stm32f7xx_hal_dma_ex.c ****   else
 306:/Users/Qianqian/Desktop/MPS/stm32lib/Drivers/STM32F7xx_HAL_Driver/Src/stm32f7xx_hal_dma_ex.c ****   {
 307:/Users/Qianqian/Desktop/MPS/stm32lib/Drivers/STM32F7xx_HAL_Driver/Src/stm32f7xx_hal_dma_ex.c ****     /* Configure DMA Stream source address */
 308:/Users/Qianqian/Desktop/MPS/stm32lib/Drivers/STM32F7xx_HAL_Driver/Src/stm32f7xx_hal_dma_ex.c ****     hdma->Instance->PAR = SrcAddress;
  43              		.loc 1 308 0
  44 000c 0368     		ldr	r3, [r0]
  45 000e 9960     		str	r1, [r3, #8]
  46              	.LVL2:
 309:/Users/Qianqian/Desktop/MPS/stm32lib/Drivers/STM32F7xx_HAL_Driver/Src/stm32f7xx_hal_dma_ex.c ****     
 310:/Users/Qianqian/Desktop/MPS/stm32lib/Drivers/STM32F7xx_HAL_Driver/Src/stm32f7xx_hal_dma_ex.c ****     /* Configure DMA Stream destination address */
 311:/Users/Qianqian/Desktop/MPS/stm32lib/Drivers/STM32F7xx_HAL_Driver/Src/stm32f7xx_hal_dma_ex.c ****     hdma->Instance->M0AR = DstAddress;
  47              		.loc 1 311 0
  48 0010 0368     		ldr	r3, [r0]
  49 0012 DA60     		str	r2, [r3, #12]
  50              	.L1:
 312:/Users/Qianqian/Desktop/MPS/stm32lib/Drivers/STM32F7xx_HAL_Driver/Src/stm32f7xx_hal_dma_ex.c ****   }
 313:/Users/Qianqian/Desktop/MPS/stm32lib/Drivers/STM32F7xx_HAL_Driver/Src/stm32f7xx_hal_dma_ex.c **** }
  51              		.loc 1 313 0
  52 0014 5DF8044B 		ldr	r4, [sp], #4
  53              		.cfi_remember_state
  54              		.cfi_restore 4
  55              		.cfi_def_cfa_offset 0
  56 0018 7047     		bx	lr
  57              	.LVL3:
  58              	.L5:
  59              		.cfi_restore_state
 299:/Users/Qianqian/Desktop/MPS/stm32lib/Drivers/STM32F7xx_HAL_Driver/Src/stm32f7xx_hal_dma_ex.c ****     
  60              		.loc 1 299 0
  61 001a 0368     		ldr	r3, [r0]
  62 001c 9A60     		str	r2, [r3, #8]
  63              	.LVL4:
 302:/Users/Qianqian/Desktop/MPS/stm32lib/Drivers/STM32F7xx_HAL_Driver/Src/stm32f7xx_hal_dma_ex.c ****   }
  64              		.loc 1 302 0
  65 001e 0368     		ldr	r3, [r0]
  66 0020 D960     		str	r1, [r3, #12]
  67 0022 F7E7     		b	.L1
  68              		.cfi_endproc
  69              	.LFE141:
  71              		.section	.text.HAL_DMAEx_MultiBufferStart,"ax",%progbits
  72              		.align	1
  73              		.global	HAL_DMAEx_MultiBufferStart
  74              		.syntax unified
  75              		.thumb
  76              		.thumb_func
  77              		.fpu fpv5-d16
  79              	HAL_DMAEx_MultiBufferStart:
  80              	.LFB138:
 122:/Users/Qianqian/Desktop/MPS/stm32lib/Drivers/STM32F7xx_HAL_Driver/Src/stm32f7xx_hal_dma_ex.c ****   HAL_StatusTypeDef status = HAL_OK;
  81              		.loc 1 122 0
  82              		.cfi_startproc
  83              		@ args = 4, pretend = 0, frame = 0
  84              		@ frame_needed = 0, uses_anonymous_args = 0
  85              	.LVL5:
  86 0000 38B5     		push	{r3, r4, r5, lr}
  87              		.cfi_def_cfa_offset 16
  88              		.cfi_offset 3, -16
  89              		.cfi_offset 4, -12
  90              		.cfi_offset 5, -8
  91              		.cfi_offset 14, -4
  92              	.LVL6:
 129:/Users/Qianqian/Desktop/MPS/stm32lib/Drivers/STM32F7xx_HAL_Driver/Src/stm32f7xx_hal_dma_ex.c ****   {
  93              		.loc 1 129 0
  94 0002 8468     		ldr	r4, [r0, #8]
  95 0004 802C     		cmp	r4, #128
  96 0006 0DD0     		beq	.L12
 137:/Users/Qianqian/Desktop/MPS/stm32lib/Drivers/STM32F7xx_HAL_Driver/Src/stm32f7xx_hal_dma_ex.c ****     
  97              		.loc 1 137 0
  98 0008 90F83440 		ldrb	r4, [r0, #52]	@ zero_extendqisi2
  99 000c 012C     		cmp	r4, #1
 100 000e 24D0     		beq	.L9
 137:/Users/Qianqian/Desktop/MPS/stm32lib/Drivers/STM32F7xx_HAL_Driver/Src/stm32f7xx_hal_dma_ex.c ****     
 101              		.loc 1 137 0 is_stmt 0 discriminator 2
 102 0010 0124     		movs	r4, #1
 103 0012 80F83440 		strb	r4, [r0, #52]
 139:/Users/Qianqian/Desktop/MPS/stm32lib/Drivers/STM32F7xx_HAL_Driver/Src/stm32f7xx_hal_dma_ex.c ****     {
 104              		.loc 1 139 0 is_stmt 1 discriminator 2
 105 0016 90F83540 		ldrb	r4, [r0, #53]	@ zero_extendqisi2
 106 001a E4B2     		uxtb	r4, r4
 107 001c 012C     		cmp	r4, #1
 108 001e 06D0     		beq	.L13
 159:/Users/Qianqian/Desktop/MPS/stm32lib/Drivers/STM32F7xx_HAL_Driver/Src/stm32f7xx_hal_dma_ex.c ****     }
 109              		.loc 1 159 0
 110 0020 0220     		movs	r0, #2
 111              	.LVL7:
 112              	.L8:
 163:/Users/Qianqian/Desktop/MPS/stm32lib/Drivers/STM32F7xx_HAL_Driver/Src/stm32f7xx_hal_dma_ex.c **** 
 113              		.loc 1 163 0
 114 0022 38BD     		pop	{r3, r4, r5, pc}
 115              	.LVL8:
 116              	.L12:
 131:/Users/Qianqian/Desktop/MPS/stm32lib/Drivers/STM32F7xx_HAL_Driver/Src/stm32f7xx_hal_dma_ex.c ****     status = HAL_ERROR;
 117              		.loc 1 131 0
 118 0024 4FF48073 		mov	r3, #256
 119              	.LVL9:
 120 0028 4365     		str	r3, [r0, #84]
 121              	.LVL10:
 132:/Users/Qianqian/Desktop/MPS/stm32lib/Drivers/STM32F7xx_HAL_Driver/Src/stm32f7xx_hal_dma_ex.c ****   }
 122              		.loc 1 132 0
 123 002a 0120     		movs	r0, #1
 124              	.LVL11:
 125 002c F9E7     		b	.L8
 126              	.LVL12:
 127              	.L13:
 128 002e 0446     		mov	r4, r0
 142:/Users/Qianqian/Desktop/MPS/stm32lib/Drivers/STM32F7xx_HAL_Driver/Src/stm32f7xx_hal_dma_ex.c ****       
 129              		.loc 1 142 0
 130 0030 0220     		movs	r0, #2
 131              	.LVL13:
 132 0032 84F83500 		strb	r0, [r4, #53]
 145:/Users/Qianqian/Desktop/MPS/stm32lib/Drivers/STM32F7xx_HAL_Driver/Src/stm32f7xx_hal_dma_ex.c ****       
 133              		.loc 1 145 0
 134 0036 2568     		ldr	r5, [r4]
 135 0038 2868     		ldr	r0, [r5]
 136 003a 40F48020 		orr	r0, r0, #262144
 137 003e 2860     		str	r0, [r5]
 148:/Users/Qianqian/Desktop/MPS/stm32lib/Drivers/STM32F7xx_HAL_Driver/Src/stm32f7xx_hal_dma_ex.c ****       
 138              		.loc 1 148 0
 139 0040 2068     		ldr	r0, [r4]
 140 0042 0361     		str	r3, [r0, #16]
 151:/Users/Qianqian/Desktop/MPS/stm32lib/Drivers/STM32F7xx_HAL_Driver/Src/stm32f7xx_hal_dma_ex.c ****       
 141              		.loc 1 151 0
 142 0044 049B     		ldr	r3, [sp, #16]
 143              	.LVL14:
 144 0046 2046     		mov	r0, r4
 145              	.LVL15:
 146 0048 FFF7FEFF 		bl	DMA_MultiBufferSetConfig
 147              	.LVL16:
 154:/Users/Qianqian/Desktop/MPS/stm32lib/Drivers/STM32F7xx_HAL_Driver/Src/stm32f7xx_hal_dma_ex.c ****     }
 148              		.loc 1 154 0
 149 004c 2268     		ldr	r2, [r4]
 150 004e 1368     		ldr	r3, [r2]
 151 0050 43F00103 		orr	r3, r3, #1
 152 0054 1360     		str	r3, [r2]
 123:/Users/Qianqian/Desktop/MPS/stm32lib/Drivers/STM32F7xx_HAL_Driver/Src/stm32f7xx_hal_dma_ex.c ****   
 153              		.loc 1 123 0
 154 0056 0020     		movs	r0, #0
 155 0058 E3E7     		b	.L8
 156              	.LVL17:
 157              	.L9:
 137:/Users/Qianqian/Desktop/MPS/stm32lib/Drivers/STM32F7xx_HAL_Driver/Src/stm32f7xx_hal_dma_ex.c ****     
 158              		.loc 1 137 0
 159 005a 0220     		movs	r0, #2
 160              	.LVL18:
 161 005c E1E7     		b	.L8
 162              		.cfi_endproc
 163              	.LFE138:
 165              		.section	.text.HAL_DMAEx_MultiBufferStart_IT,"ax",%progbits
 166              		.align	1
 167              		.global	HAL_DMAEx_MultiBufferStart_IT
 168              		.syntax unified
 169              		.thumb
 170              		.thumb_func
 171              		.fpu fpv5-d16
 173              	HAL_DMAEx_MultiBufferStart_IT:
 174              	.LFB139:
 176:/Users/Qianqian/Desktop/MPS/stm32lib/Drivers/STM32F7xx_HAL_Driver/Src/stm32f7xx_hal_dma_ex.c ****   HAL_StatusTypeDef status = HAL_OK;
 175              		.loc 1 176 0
 176              		.cfi_startproc
 177              		@ args = 4, pretend = 0, frame = 0
 178              		@ frame_needed = 0, uses_anonymous_args = 0
 179              	.LVL19:
 180 0000 38B5     		push	{r3, r4, r5, lr}
 181              		.cfi_def_cfa_offset 16
 182              		.cfi_offset 3, -16
 183              		.cfi_offset 4, -12
 184              		.cfi_offset 5, -8
 185              		.cfi_offset 14, -4
 186              	.LVL20:
 183:/Users/Qianqian/Desktop/MPS/stm32lib/Drivers/STM32F7xx_HAL_Driver/Src/stm32f7xx_hal_dma_ex.c ****   {
 187              		.loc 1 183 0
 188 0002 8468     		ldr	r4, [r0, #8]
 189 0004 802C     		cmp	r4, #128
 190 0006 11D0     		beq	.L302
 190:/Users/Qianqian/Desktop/MPS/stm32lib/Drivers/STM32F7xx_HAL_Driver/Src/stm32f7xx_hal_dma_ex.c ****   
 191              		.loc 1 190 0
 192 0008 90F83440 		ldrb	r4, [r0, #52]	@ zero_extendqisi2
 193 000c 012C     		cmp	r4, #1
 194 000e 00F05F87 		beq	.L60
 190:/Users/Qianqian/Desktop/MPS/stm32lib/Drivers/STM32F7xx_HAL_Driver/Src/stm32f7xx_hal_dma_ex.c ****   
 195              		.loc 1 190 0 is_stmt 0 discriminator 2
 196 0012 0124     		movs	r4, #1
 197 0014 80F83440 		strb	r4, [r0, #52]
 192:/Users/Qianqian/Desktop/MPS/stm32lib/Drivers/STM32F7xx_HAL_Driver/Src/stm32f7xx_hal_dma_ex.c ****   {
 198              		.loc 1 192 0 is_stmt 1 discriminator 2
 199 0018 90F83540 		ldrb	r4, [r0, #53]	@ zero_extendqisi2
 200 001c E4B2     		uxtb	r4, r4
 201 001e 012C     		cmp	r4, #1
 202 0020 09D0     		beq	.L303
 231:/Users/Qianqian/Desktop/MPS/stm32lib/Drivers/STM32F7xx_HAL_Driver/Src/stm32f7xx_hal_dma_ex.c ****     
 203              		.loc 1 231 0
 204 0022 0023     		movs	r3, #0
 205              	.LVL21:
 206 0024 80F83430 		strb	r3, [r0, #52]
 207              	.LVL22:
 234:/Users/Qianqian/Desktop/MPS/stm32lib/Drivers/STM32F7xx_HAL_Driver/Src/stm32f7xx_hal_dma_ex.c ****   }  
 208              		.loc 1 234 0
 209 0028 0220     		movs	r0, #2
 210              	.LVL23:
 211              	.L16:
 237:/Users/Qianqian/Desktop/MPS/stm32lib/Drivers/STM32F7xx_HAL_Driver/Src/stm32f7xx_hal_dma_ex.c **** 
 212              		.loc 1 237 0
 213 002a 38BD     		pop	{r3, r4, r5, pc}
 214              	.LVL24:
 215              	.L302:
 185:/Users/Qianqian/Desktop/MPS/stm32lib/Drivers/STM32F7xx_HAL_Driver/Src/stm32f7xx_hal_dma_ex.c ****     return HAL_ERROR;
 216              		.loc 1 185 0
 217 002c 4FF48073 		mov	r3, #256
 218              	.LVL25:
 219 0030 4365     		str	r3, [r0, #84]
 186:/Users/Qianqian/Desktop/MPS/stm32lib/Drivers/STM32F7xx_HAL_Driver/Src/stm32f7xx_hal_dma_ex.c ****   }
 220              		.loc 1 186 0
 221 0032 0120     		movs	r0, #1
 222              	.LVL26:
 223 0034 F9E7     		b	.L16
 224              	.LVL27:
 225              	.L303:
 226 0036 0446     		mov	r4, r0
 195:/Users/Qianqian/Desktop/MPS/stm32lib/Drivers/STM32F7xx_HAL_Driver/Src/stm32f7xx_hal_dma_ex.c ****     
 227              		.loc 1 195 0
 228 0038 0220     		movs	r0, #2
 229              	.LVL28:
 230 003a 84F83500 		strb	r0, [r4, #53]
 198:/Users/Qianqian/Desktop/MPS/stm32lib/Drivers/STM32F7xx_HAL_Driver/Src/stm32f7xx_hal_dma_ex.c ****     
 231              		.loc 1 198 0
 232 003e 0020     		movs	r0, #0
 233 0040 6065     		str	r0, [r4, #84]
 201:/Users/Qianqian/Desktop/MPS/stm32lib/Drivers/STM32F7xx_HAL_Driver/Src/stm32f7xx_hal_dma_ex.c ****     
 234              		.loc 1 201 0
 235 0042 2568     		ldr	r5, [r4]
 236 0044 2868     		ldr	r0, [r5]
 237 0046 40F48020 		orr	r0, r0, #262144
 238 004a 2860     		str	r0, [r5]
 204:/Users/Qianqian/Desktop/MPS/stm32lib/Drivers/STM32F7xx_HAL_Driver/Src/stm32f7xx_hal_dma_ex.c ****     
 239              		.loc 1 204 0
 240 004c 2068     		ldr	r0, [r4]
 241 004e 0361     		str	r3, [r0, #16]
 207:/Users/Qianqian/Desktop/MPS/stm32lib/Drivers/STM32F7xx_HAL_Driver/Src/stm32f7xx_hal_dma_ex.c ****     
 242              		.loc 1 207 0
 243 0050 049B     		ldr	r3, [sp, #16]
 244              	.LVL29:
 245 0052 2046     		mov	r0, r4
 246              	.LVL30:
 247 0054 FFF7FEFF 		bl	DMA_MultiBufferSetConfig
 248              	.LVL31:
 210:/Users/Qianqian/Desktop/MPS/stm32lib/Drivers/STM32F7xx_HAL_Driver/Src/stm32f7xx_hal_dma_ex.c ****     __HAL_DMA_CLEAR_FLAG (hdma, __HAL_DMA_GET_HT_FLAG_INDEX(hdma));
 249              		.loc 1 210 0
 250 0058 2368     		ldr	r3, [r4]
 251 005a C64A     		ldr	r2, .L325
 252 005c 9342     		cmp	r3, r2
 253 005e 40F29880 		bls	.L18
 210:/Users/Qianqian/Desktop/MPS/stm32lib/Drivers/STM32F7xx_HAL_Driver/Src/stm32f7xx_hal_dma_ex.c ****     __HAL_DMA_CLEAR_FLAG (hdma, __HAL_DMA_GET_HT_FLAG_INDEX(hdma));
 254              		.loc 1 210 0 is_stmt 0 discriminator 1
 255 0062 A2F58962 		sub	r2, r2, #1096
 256 0066 9342     		cmp	r3, r2
 257 0068 31D0     		beq	.L61
 210:/Users/Qianqian/Desktop/MPS/stm32lib/Drivers/STM32F7xx_HAL_Driver/Src/stm32f7xx_hal_dma_ex.c ****     __HAL_DMA_CLEAR_FLAG (hdma, __HAL_DMA_GET_HT_FLAG_INDEX(hdma));
 258              		.loc 1 210 0 discriminator 3
 259 006a 02F58062 		add	r2, r2, #1024
 260 006e 9342     		cmp	r3, r2
 261 0070 74D0     		beq	.L62
 210:/Users/Qianqian/Desktop/MPS/stm32lib/Drivers/STM32F7xx_HAL_Driver/Src/stm32f7xx_hal_dma_ex.c ****     __HAL_DMA_CLEAR_FLAG (hdma, __HAL_DMA_GET_HT_FLAG_INDEX(hdma));
 262              		.loc 1 210 0 discriminator 5
 263 0072 A2F56872 		sub	r2, r2, #928
 264 0076 9342     		cmp	r3, r2
 265 0078 72D0     		beq	.L63
 210:/Users/Qianqian/Desktop/MPS/stm32lib/Drivers/STM32F7xx_HAL_Driver/Src/stm32f7xx_hal_dma_ex.c ****     __HAL_DMA_CLEAR_FLAG (hdma, __HAL_DMA_GET_HT_FLAG_INDEX(hdma));
 266              		.loc 1 210 0 discriminator 7
 267 007a 02F58062 		add	r2, r2, #1024
 268 007e 9342     		cmp	r3, r2
 269 0080 70D0     		beq	.L64
 210:/Users/Qianqian/Desktop/MPS/stm32lib/Drivers/STM32F7xx_HAL_Driver/Src/stm32f7xx_hal_dma_ex.c ****     __HAL_DMA_CLEAR_FLAG (hdma, __HAL_DMA_GET_HT_FLAG_INDEX(hdma));
 270              		.loc 1 210 0 discriminator 9
 271 0082 A2F58962 		sub	r2, r2, #1096
 272 0086 9342     		cmp	r3, r2
 273 0088 6ED0     		beq	.L65
 210:/Users/Qianqian/Desktop/MPS/stm32lib/Drivers/STM32F7xx_HAL_Driver/Src/stm32f7xx_hal_dma_ex.c ****     __HAL_DMA_CLEAR_FLAG (hdma, __HAL_DMA_GET_HT_FLAG_INDEX(hdma));
 274              		.loc 1 210 0 discriminator 11
 275 008a 02F58062 		add	r2, r2, #1024
 276 008e 9342     		cmp	r3, r2
 277 0090 6DD0     		beq	.L66
 210:/Users/Qianqian/Desktop/MPS/stm32lib/Drivers/STM32F7xx_HAL_Driver/Src/stm32f7xx_hal_dma_ex.c ****     __HAL_DMA_CLEAR_FLAG (hdma, __HAL_DMA_GET_HT_FLAG_INDEX(hdma));
 278              		.loc 1 210 0 discriminator 13
 279 0092 A2F56872 		sub	r2, r2, #928
 280 0096 9342     		cmp	r3, r2
 281 0098 6CD0     		beq	.L67
 210:/Users/Qianqian/Desktop/MPS/stm32lib/Drivers/STM32F7xx_HAL_Driver/Src/stm32f7xx_hal_dma_ex.c ****     __HAL_DMA_CLEAR_FLAG (hdma, __HAL_DMA_GET_HT_FLAG_INDEX(hdma));
 282              		.loc 1 210 0 discriminator 15
 283 009a 02F58062 		add	r2, r2, #1024
 284 009e 9342     		cmp	r3, r2
 285 00a0 6BD0     		beq	.L68
 210:/Users/Qianqian/Desktop/MPS/stm32lib/Drivers/STM32F7xx_HAL_Driver/Src/stm32f7xx_hal_dma_ex.c ****     __HAL_DMA_CLEAR_FLAG (hdma, __HAL_DMA_GET_HT_FLAG_INDEX(hdma));
 286              		.loc 1 210 0 discriminator 17
 287 00a2 A2F58962 		sub	r2, r2, #1096
 288 00a6 9342     		cmp	r3, r2
 289 00a8 6AD0     		beq	.L69
 210:/Users/Qianqian/Desktop/MPS/stm32lib/Drivers/STM32F7xx_HAL_Driver/Src/stm32f7xx_hal_dma_ex.c ****     __HAL_DMA_CLEAR_FLAG (hdma, __HAL_DMA_GET_HT_FLAG_INDEX(hdma));
 290              		.loc 1 210 0 discriminator 19
 291 00aa 02F58062 		add	r2, r2, #1024
 292 00ae 9342     		cmp	r3, r2
 293 00b0 69D0     		beq	.L70
 210:/Users/Qianqian/Desktop/MPS/stm32lib/Drivers/STM32F7xx_HAL_Driver/Src/stm32f7xx_hal_dma_ex.c ****     __HAL_DMA_CLEAR_FLAG (hdma, __HAL_DMA_GET_HT_FLAG_INDEX(hdma));
 294              		.loc 1 210 0 discriminator 21
 295 00b2 A2F56872 		sub	r2, r2, #928
 296 00b6 9342     		cmp	r3, r2
 297 00b8 68D0     		beq	.L71
 210:/Users/Qianqian/Desktop/MPS/stm32lib/Drivers/STM32F7xx_HAL_Driver/Src/stm32f7xx_hal_dma_ex.c ****     __HAL_DMA_CLEAR_FLAG (hdma, __HAL_DMA_GET_HT_FLAG_INDEX(hdma));
 298              		.loc 1 210 0 discriminator 23
 299 00ba 02F58062 		add	r2, r2, #1024
 300 00be 9342     		cmp	r3, r2
 301 00c0 02D0     		beq	.L304
 210:/Users/Qianqian/Desktop/MPS/stm32lib/Drivers/STM32F7xx_HAL_Driver/Src/stm32f7xx_hal_dma_ex.c ****     __HAL_DMA_CLEAR_FLAG (hdma, __HAL_DMA_GET_HT_FLAG_INDEX(hdma));
 302              		.loc 1 210 0
 303 00c2 4FF00062 		mov	r2, #134217728
 304 00c6 03E0     		b	.L19
 305              	.L304:
 306 00c8 4FF40012 		mov	r2, #2097152
 307 00cc 00E0     		b	.L19
 308              	.L61:
 309 00ce 2022     		movs	r2, #32
 310              	.L19:
 210:/Users/Qianqian/Desktop/MPS/stm32lib/Drivers/STM32F7xx_HAL_Driver/Src/stm32f7xx_hal_dma_ex.c ****     __HAL_DMA_CLEAR_FLAG (hdma, __HAL_DMA_GET_HT_FLAG_INDEX(hdma));
 311              		.loc 1 210 0 discriminator 50
 312 00d0 A94B     		ldr	r3, .L325+4
 313 00d2 DA60     		str	r2, [r3, #12]
 314              	.LVL32:
 315              	.L20:
 211:/Users/Qianqian/Desktop/MPS/stm32lib/Drivers/STM32F7xx_HAL_Driver/Src/stm32f7xx_hal_dma_ex.c ****     __HAL_DMA_CLEAR_FLAG (hdma, __HAL_DMA_GET_TE_FLAG_INDEX(hdma));
 316              		.loc 1 211 0 is_stmt 1
 317 00d4 2368     		ldr	r3, [r4]
 318 00d6 A74A     		ldr	r2, .L325
 319 00d8 9342     		cmp	r3, r2
 320 00da 40F2CE81 		bls	.L26
 211:/Users/Qianqian/Desktop/MPS/stm32lib/Drivers/STM32F7xx_HAL_Driver/Src/stm32f7xx_hal_dma_ex.c ****     __HAL_DMA_CLEAR_FLAG (hdma, __HAL_DMA_GET_TE_FLAG_INDEX(hdma));
 321              		.loc 1 211 0 is_stmt 0 discriminator 1
 322 00de A2F58962 		sub	r2, r2, #1096
 323 00e2 9342     		cmp	r3, r2
 324 00e4 00F06781 		beq	.L109
 211:/Users/Qianqian/Desktop/MPS/stm32lib/Drivers/STM32F7xx_HAL_Driver/Src/stm32f7xx_hal_dma_ex.c ****     __HAL_DMA_CLEAR_FLAG (hdma, __HAL_DMA_GET_TE_FLAG_INDEX(hdma));
 325              		.loc 1 211 0 discriminator 3
 326 00e8 02F58062 		add	r2, r2, #1024
 327 00ec 9342     		cmp	r3, r2
 328 00ee 00F0A981 		beq	.L110
 211:/Users/Qianqian/Desktop/MPS/stm32lib/Drivers/STM32F7xx_HAL_Driver/Src/stm32f7xx_hal_dma_ex.c ****     __HAL_DMA_CLEAR_FLAG (hdma, __HAL_DMA_GET_TE_FLAG_INDEX(hdma));
 329              		.loc 1 211 0 discriminator 5
 330 00f2 A2F56872 		sub	r2, r2, #928
 331 00f6 9342     		cmp	r3, r2
 332 00f8 00F0A681 		beq	.L111
 211:/Users/Qianqian/Desktop/MPS/stm32lib/Drivers/STM32F7xx_HAL_Driver/Src/stm32f7xx_hal_dma_ex.c ****     __HAL_DMA_CLEAR_FLAG (hdma, __HAL_DMA_GET_TE_FLAG_INDEX(hdma));
 333              		.loc 1 211 0 discriminator 7
 334 00fc 02F58062 		add	r2, r2, #1024
 335 0100 9342     		cmp	r3, r2
 336 0102 00F0A381 		beq	.L112
 211:/Users/Qianqian/Desktop/MPS/stm32lib/Drivers/STM32F7xx_HAL_Driver/Src/stm32f7xx_hal_dma_ex.c ****     __HAL_DMA_CLEAR_FLAG (hdma, __HAL_DMA_GET_TE_FLAG_INDEX(hdma));
 337              		.loc 1 211 0 discriminator 9
 338 0106 A2F58962 		sub	r2, r2, #1096
 339 010a 9342     		cmp	r3, r2
 340 010c 00F0A081 		beq	.L113
 211:/Users/Qianqian/Desktop/MPS/stm32lib/Drivers/STM32F7xx_HAL_Driver/Src/stm32f7xx_hal_dma_ex.c ****     __HAL_DMA_CLEAR_FLAG (hdma, __HAL_DMA_GET_TE_FLAG_INDEX(hdma));
 341              		.loc 1 211 0 discriminator 11
 342 0110 02F58062 		add	r2, r2, #1024
 343 0114 9342     		cmp	r3, r2
 344 0116 00F09E81 		beq	.L114
 211:/Users/Qianqian/Desktop/MPS/stm32lib/Drivers/STM32F7xx_HAL_Driver/Src/stm32f7xx_hal_dma_ex.c ****     __HAL_DMA_CLEAR_FLAG (hdma, __HAL_DMA_GET_TE_FLAG_INDEX(hdma));
 345              		.loc 1 211 0 discriminator 13
 346 011a A2F56872 		sub	r2, r2, #928
 347 011e 9342     		cmp	r3, r2
 348 0120 00F09C81 		beq	.L115
 211:/Users/Qianqian/Desktop/MPS/stm32lib/Drivers/STM32F7xx_HAL_Driver/Src/stm32f7xx_hal_dma_ex.c ****     __HAL_DMA_CLEAR_FLAG (hdma, __HAL_DMA_GET_TE_FLAG_INDEX(hdma));
 349              		.loc 1 211 0 discriminator 15
 350 0124 02F58062 		add	r2, r2, #1024
 351 0128 9342     		cmp	r3, r2
 352 012a 00F09A81 		beq	.L116
 211:/Users/Qianqian/Desktop/MPS/stm32lib/Drivers/STM32F7xx_HAL_Driver/Src/stm32f7xx_hal_dma_ex.c ****     __HAL_DMA_CLEAR_FLAG (hdma, __HAL_DMA_GET_TE_FLAG_INDEX(hdma));
 353              		.loc 1 211 0 discriminator 17
 354 012e A2F58962 		sub	r2, r2, #1096
 355 0132 9342     		cmp	r3, r2
 356 0134 00F09881 		beq	.L117
 211:/Users/Qianqian/Desktop/MPS/stm32lib/Drivers/STM32F7xx_HAL_Driver/Src/stm32f7xx_hal_dma_ex.c ****     __HAL_DMA_CLEAR_FLAG (hdma, __HAL_DMA_GET_TE_FLAG_INDEX(hdma));
 357              		.loc 1 211 0 discriminator 19
 358 0138 02F58062 		add	r2, r2, #1024
 359 013c 9342     		cmp	r3, r2
 360 013e 00F09681 		beq	.L118
 211:/Users/Qianqian/Desktop/MPS/stm32lib/Drivers/STM32F7xx_HAL_Driver/Src/stm32f7xx_hal_dma_ex.c ****     __HAL_DMA_CLEAR_FLAG (hdma, __HAL_DMA_GET_TE_FLAG_INDEX(hdma));
 361              		.loc 1 211 0 discriminator 21
 362 0142 A2F56872 		sub	r2, r2, #928
 363 0146 9342     		cmp	r3, r2
 364 0148 00F09481 		beq	.L119
 211:/Users/Qianqian/Desktop/MPS/stm32lib/Drivers/STM32F7xx_HAL_Driver/Src/stm32f7xx_hal_dma_ex.c ****     __HAL_DMA_CLEAR_FLAG (hdma, __HAL_DMA_GET_TE_FLAG_INDEX(hdma));
 365              		.loc 1 211 0 discriminator 23
 366 014c 02F58062 		add	r2, r2, #1024
 367 0150 9342     		cmp	r3, r2
 368 0152 00F02D81 		beq	.L305
 211:/Users/Qianqian/Desktop/MPS/stm32lib/Drivers/STM32F7xx_HAL_Driver/Src/stm32f7xx_hal_dma_ex.c ****     __HAL_DMA_CLEAR_FLAG (hdma, __HAL_DMA_GET_TE_FLAG_INDEX(hdma));
 369              		.loc 1 211 0
 370 0156 4FF08062 		mov	r2, #67108864
 371 015a 2DE1     		b	.L27
 372              	.LVL33:
 373              	.L62:
 210:/Users/Qianqian/Desktop/MPS/stm32lib/Drivers/STM32F7xx_HAL_Driver/Src/stm32f7xx_hal_dma_ex.c ****     __HAL_DMA_CLEAR_FLAG (hdma, __HAL_DMA_GET_HT_FLAG_INDEX(hdma));
 374              		.loc 1 210 0 is_stmt 1
 375 015c 2022     		movs	r2, #32
 376 015e B7E7     		b	.L19
 377              	.L63:
 378 0160 2022     		movs	r2, #32
 379 0162 B5E7     		b	.L19
 380              	.L64:
 381 0164 2022     		movs	r2, #32
 382 0166 B3E7     		b	.L19
 383              	.L65:
 384 0168 4FF40062 		mov	r2, #2048
 385 016c B0E7     		b	.L19
 386              	.L66:
 387 016e 4FF40062 		mov	r2, #2048
 388 0172 ADE7     		b	.L19
 389              	.L67:
 390 0174 4FF40062 		mov	r2, #2048
 391 0178 AAE7     		b	.L19
 392              	.L68:
 393 017a 4FF40062 		mov	r2, #2048
 394 017e A7E7     		b	.L19
 395              	.L69:
 396 0180 4FF40012 		mov	r2, #2097152
 397 0184 A4E7     		b	.L19
 398              	.L70:
 399 0186 4FF40012 		mov	r2, #2097152
 400 018a A1E7     		b	.L19
 401              	.L71:
 402 018c 4FF40012 		mov	r2, #2097152
 403 0190 9EE7     		b	.L19
 404              	.L18:
 210:/Users/Qianqian/Desktop/MPS/stm32lib/Drivers/STM32F7xx_HAL_Driver/Src/stm32f7xx_hal_dma_ex.c ****     __HAL_DMA_CLEAR_FLAG (hdma, __HAL_DMA_GET_HT_FLAG_INDEX(hdma));
 405              		.loc 1 210 0 is_stmt 0 discriminator 2
 406 0192 7A4A     		ldr	r2, .L325+8
 407 0194 9342     		cmp	r3, r2
 408 0196 53D9     		bls	.L21
 210:/Users/Qianqian/Desktop/MPS/stm32lib/Drivers/STM32F7xx_HAL_Driver/Src/stm32f7xx_hal_dma_ex.c ****     __HAL_DMA_CLEAR_FLAG (hdma, __HAL_DMA_GET_HT_FLAG_INDEX(hdma));
 409              		.loc 1 210 0 discriminator 51
 410 0198 A83A     		subs	r2, r2, #168
 411 019a 9342     		cmp	r3, r2
 412 019c 31D0     		beq	.L73
 210:/Users/Qianqian/Desktop/MPS/stm32lib/Drivers/STM32F7xx_HAL_Driver/Src/stm32f7xx_hal_dma_ex.c ****     __HAL_DMA_CLEAR_FLAG (hdma, __HAL_DMA_GET_HT_FLAG_INDEX(hdma));
 413              		.loc 1 210 0 discriminator 53
 414 019e 02F58062 		add	r2, r2, #1024
 415 01a2 9342     		cmp	r3, r2
 416 01a4 31D0     		beq	.L74
 210:/Users/Qianqian/Desktop/MPS/stm32lib/Drivers/STM32F7xx_HAL_Driver/Src/stm32f7xx_hal_dma_ex.c ****     __HAL_DMA_CLEAR_FLAG (hdma, __HAL_DMA_GET_HT_FLAG_INDEX(hdma));
 417              		.loc 1 210 0 discriminator 55
 418 01a6 A2F56872 		sub	r2, r2, #928
 419 01aa 9342     		cmp	r3, r2
 420 01ac 2FD0     		beq	.L75
 210:/Users/Qianqian/Desktop/MPS/stm32lib/Drivers/STM32F7xx_HAL_Driver/Src/stm32f7xx_hal_dma_ex.c ****     __HAL_DMA_CLEAR_FLAG (hdma, __HAL_DMA_GET_HT_FLAG_INDEX(hdma));
 421              		.loc 1 210 0 discriminator 57
 422 01ae 02F58062 		add	r2, r2, #1024
 423 01b2 9342     		cmp	r3, r2
 424 01b4 2DD0     		beq	.L76
 210:/Users/Qianqian/Desktop/MPS/stm32lib/Drivers/STM32F7xx_HAL_Driver/Src/stm32f7xx_hal_dma_ex.c ****     __HAL_DMA_CLEAR_FLAG (hdma, __HAL_DMA_GET_HT_FLAG_INDEX(hdma));
 425              		.loc 1 210 0 discriminator 59
 426 01b6 A2F58962 		sub	r2, r2, #1096
 427 01ba 9342     		cmp	r3, r2
 428 01bc 2BD0     		beq	.L77
 210:/Users/Qianqian/Desktop/MPS/stm32lib/Drivers/STM32F7xx_HAL_Driver/Src/stm32f7xx_hal_dma_ex.c ****     __HAL_DMA_CLEAR_FLAG (hdma, __HAL_DMA_GET_HT_FLAG_INDEX(hdma));
 429              		.loc 1 210 0 discriminator 61
 430 01be 02F58062 		add	r2, r2, #1024
 431 01c2 9342     		cmp	r3, r2
 432 01c4 2AD0     		beq	.L78
 210:/Users/Qianqian/Desktop/MPS/stm32lib/Drivers/STM32F7xx_HAL_Driver/Src/stm32f7xx_hal_dma_ex.c ****     __HAL_DMA_CLEAR_FLAG (hdma, __HAL_DMA_GET_HT_FLAG_INDEX(hdma));
 433              		.loc 1 210 0 discriminator 63
 434 01c6 A2F56872 		sub	r2, r2, #928
 435 01ca 9342     		cmp	r3, r2
 436 01cc 29D0     		beq	.L79
 210:/Users/Qianqian/Desktop/MPS/stm32lib/Drivers/STM32F7xx_HAL_Driver/Src/stm32f7xx_hal_dma_ex.c ****     __HAL_DMA_CLEAR_FLAG (hdma, __HAL_DMA_GET_HT_FLAG_INDEX(hdma));
 437              		.loc 1 210 0 discriminator 65
 438 01ce 02F58062 		add	r2, r2, #1024
 439 01d2 9342     		cmp	r3, r2
 440 01d4 28D0     		beq	.L80
 210:/Users/Qianqian/Desktop/MPS/stm32lib/Drivers/STM32F7xx_HAL_Driver/Src/stm32f7xx_hal_dma_ex.c ****     __HAL_DMA_CLEAR_FLAG (hdma, __HAL_DMA_GET_HT_FLAG_INDEX(hdma));
 441              		.loc 1 210 0 discriminator 67
 442 01d6 A2F58962 		sub	r2, r2, #1096
 443 01da 9342     		cmp	r3, r2
 444 01dc 27D0     		beq	.L81
 210:/Users/Qianqian/Desktop/MPS/stm32lib/Drivers/STM32F7xx_HAL_Driver/Src/stm32f7xx_hal_dma_ex.c ****     __HAL_DMA_CLEAR_FLAG (hdma, __HAL_DMA_GET_HT_FLAG_INDEX(hdma));
 445              		.loc 1 210 0 discriminator 69
 446 01de 02F58062 		add	r2, r2, #1024
 447 01e2 9342     		cmp	r3, r2
 448 01e4 26D0     		beq	.L82
 210:/Users/Qianqian/Desktop/MPS/stm32lib/Drivers/STM32F7xx_HAL_Driver/Src/stm32f7xx_hal_dma_ex.c ****     __HAL_DMA_CLEAR_FLAG (hdma, __HAL_DMA_GET_HT_FLAG_INDEX(hdma));
 449              		.loc 1 210 0 discriminator 71
 450 01e6 A2F56872 		sub	r2, r2, #928
 451 01ea 9342     		cmp	r3, r2
 452 01ec 25D0     		beq	.L83
 210:/Users/Qianqian/Desktop/MPS/stm32lib/Drivers/STM32F7xx_HAL_Driver/Src/stm32f7xx_hal_dma_ex.c ****     __HAL_DMA_CLEAR_FLAG (hdma, __HAL_DMA_GET_HT_FLAG_INDEX(hdma));
 453              		.loc 1 210 0 discriminator 73
 454 01ee 02F58062 		add	r2, r2, #1024
 455 01f2 9342     		cmp	r3, r2
 456 01f4 02D0     		beq	.L306
 210:/Users/Qianqian/Desktop/MPS/stm32lib/Drivers/STM32F7xx_HAL_Driver/Src/stm32f7xx_hal_dma_ex.c ****     __HAL_DMA_CLEAR_FLAG (hdma, __HAL_DMA_GET_HT_FLAG_INDEX(hdma));
 457              		.loc 1 210 0
 458 01f6 4FF00062 		mov	r2, #134217728
 459 01fa 03E0     		b	.L22
 460              	.L306:
 461 01fc 4FF40012 		mov	r2, #2097152
 462 0200 00E0     		b	.L22
 463              	.L73:
 464 0202 2022     		movs	r2, #32
 465              	.L22:
 210:/Users/Qianqian/Desktop/MPS/stm32lib/Drivers/STM32F7xx_HAL_Driver/Src/stm32f7xx_hal_dma_ex.c ****     __HAL_DMA_CLEAR_FLAG (hdma, __HAL_DMA_GET_HT_FLAG_INDEX(hdma));
 466              		.loc 1 210 0 discriminator 100
 467 0204 5C4B     		ldr	r3, .L325+4
 468 0206 9A60     		str	r2, [r3, #8]
 469              	.LVL34:
 470 0208 64E7     		b	.L20
 471              	.LVL35:
 472              	.L74:
 210:/Users/Qianqian/Desktop/MPS/stm32lib/Drivers/STM32F7xx_HAL_Driver/Src/stm32f7xx_hal_dma_ex.c ****     __HAL_DMA_CLEAR_FLAG (hdma, __HAL_DMA_GET_HT_FLAG_INDEX(hdma));
 473              		.loc 1 210 0
 474 020a 2022     		movs	r2, #32
 475 020c FAE7     		b	.L22
 476              	.L75:
 477 020e 2022     		movs	r2, #32
 478 0210 F8E7     		b	.L22
 479              	.L76:
 480 0212 2022     		movs	r2, #32
 481 0214 F6E7     		b	.L22
 482              	.L77:
 483 0216 4FF40062 		mov	r2, #2048
 484 021a F3E7     		b	.L22
 485              	.L78:
 486 021c 4FF40062 		mov	r2, #2048
 487 0220 F0E7     		b	.L22
 488              	.L79:
 489 0222 4FF40062 		mov	r2, #2048
 490 0226 EDE7     		b	.L22
 491              	.L80:
 492 0228 4FF40062 		mov	r2, #2048
 493 022c EAE7     		b	.L22
 494              	.L81:
 495 022e 4FF40012 		mov	r2, #2097152
 496 0232 E7E7     		b	.L22
 497              	.L82:
 498 0234 4FF40012 		mov	r2, #2097152
 499 0238 E4E7     		b	.L22
 500              	.L83:
 501 023a 4FF40012 		mov	r2, #2097152
 502 023e E1E7     		b	.L22
 503              	.L21:
 210:/Users/Qianqian/Desktop/MPS/stm32lib/Drivers/STM32F7xx_HAL_Driver/Src/stm32f7xx_hal_dma_ex.c ****     __HAL_DMA_CLEAR_FLAG (hdma, __HAL_DMA_GET_HT_FLAG_INDEX(hdma));
 504              		.loc 1 210 0 discriminator 52
 505 0240 4F4A     		ldr	r2, .L325+12
 506 0242 9342     		cmp	r3, r2
 507 0244 53D9     		bls	.L23
 210:/Users/Qianqian/Desktop/MPS/stm32lib/Drivers/STM32F7xx_HAL_Driver/Src/stm32f7xx_hal_dma_ex.c ****     __HAL_DMA_CLEAR_FLAG (hdma, __HAL_DMA_GET_HT_FLAG_INDEX(hdma));
 508              		.loc 1 210 0 discriminator 102
 509 0246 483A     		subs	r2, r2, #72
 510 0248 9342     		cmp	r3, r2
 511 024a 31D0     		beq	.L85
 210:/Users/Qianqian/Desktop/MPS/stm32lib/Drivers/STM32F7xx_HAL_Driver/Src/stm32f7xx_hal_dma_ex.c ****     __HAL_DMA_CLEAR_FLAG (hdma, __HAL_DMA_GET_HT_FLAG_INDEX(hdma));
 512              		.loc 1 210 0 discriminator 104
 513 024c 02F58062 		add	r2, r2, #1024
 514 0250 9342     		cmp	r3, r2
 515 0252 31D0     		beq	.L86
 210:/Users/Qianqian/Desktop/MPS/stm32lib/Drivers/STM32F7xx_HAL_Driver/Src/stm32f7xx_hal_dma_ex.c ****     __HAL_DMA_CLEAR_FLAG (hdma, __HAL_DMA_GET_HT_FLAG_INDEX(hdma));
 516              		.loc 1 210 0 discriminator 106
 517 0254 A2F56872 		sub	r2, r2, #928
 518 0258 9342     		cmp	r3, r2
 519 025a 2FD0     		beq	.L87
 210:/Users/Qianqian/Desktop/MPS/stm32lib/Drivers/STM32F7xx_HAL_Driver/Src/stm32f7xx_hal_dma_ex.c ****     __HAL_DMA_CLEAR_FLAG (hdma, __HAL_DMA_GET_HT_FLAG_INDEX(hdma));
 520              		.loc 1 210 0 discriminator 108
 521 025c 02F58062 		add	r2, r2, #1024
 522 0260 9342     		cmp	r3, r2
 523 0262 2DD0     		beq	.L88
 210:/Users/Qianqian/Desktop/MPS/stm32lib/Drivers/STM32F7xx_HAL_Driver/Src/stm32f7xx_hal_dma_ex.c ****     __HAL_DMA_CLEAR_FLAG (hdma, __HAL_DMA_GET_HT_FLAG_INDEX(hdma));
 524              		.loc 1 210 0 discriminator 110
 525 0264 A2F58962 		sub	r2, r2, #1096
 526 0268 9342     		cmp	r3, r2
 527 026a 2BD0     		beq	.L89
 210:/Users/Qianqian/Desktop/MPS/stm32lib/Drivers/STM32F7xx_HAL_Driver/Src/stm32f7xx_hal_dma_ex.c ****     __HAL_DMA_CLEAR_FLAG (hdma, __HAL_DMA_GET_HT_FLAG_INDEX(hdma));
 528              		.loc 1 210 0 discriminator 112
 529 026c 02F58062 		add	r2, r2, #1024
 530 0270 9342     		cmp	r3, r2
 531 0272 2AD0     		beq	.L90
 210:/Users/Qianqian/Desktop/MPS/stm32lib/Drivers/STM32F7xx_HAL_Driver/Src/stm32f7xx_hal_dma_ex.c ****     __HAL_DMA_CLEAR_FLAG (hdma, __HAL_DMA_GET_HT_FLAG_INDEX(hdma));
 532              		.loc 1 210 0 discriminator 114
 533 0274 A2F56872 		sub	r2, r2, #928
 534 0278 9342     		cmp	r3, r2
 535 027a 29D0     		beq	.L91
 210:/Users/Qianqian/Desktop/MPS/stm32lib/Drivers/STM32F7xx_HAL_Driver/Src/stm32f7xx_hal_dma_ex.c ****     __HAL_DMA_CLEAR_FLAG (hdma, __HAL_DMA_GET_HT_FLAG_INDEX(hdma));
 536              		.loc 1 210 0 discriminator 116
 537 027c 02F58062 		add	r2, r2, #1024
 538 0280 9342     		cmp	r3, r2
 539 0282 28D0     		beq	.L92
 210:/Users/Qianqian/Desktop/MPS/stm32lib/Drivers/STM32F7xx_HAL_Driver/Src/stm32f7xx_hal_dma_ex.c ****     __HAL_DMA_CLEAR_FLAG (hdma, __HAL_DMA_GET_HT_FLAG_INDEX(hdma));
 540              		.loc 1 210 0 discriminator 118
 541 0284 A2F58962 		sub	r2, r2, #1096
 542 0288 9342     		cmp	r3, r2
 543 028a 27D0     		beq	.L93
 210:/Users/Qianqian/Desktop/MPS/stm32lib/Drivers/STM32F7xx_HAL_Driver/Src/stm32f7xx_hal_dma_ex.c ****     __HAL_DMA_CLEAR_FLAG (hdma, __HAL_DMA_GET_HT_FLAG_INDEX(hdma));
 544              		.loc 1 210 0 discriminator 120
 545 028c 02F58062 		add	r2, r2, #1024
 546 0290 9342     		cmp	r3, r2
 547 0292 26D0     		beq	.L94
 210:/Users/Qianqian/Desktop/MPS/stm32lib/Drivers/STM32F7xx_HAL_Driver/Src/stm32f7xx_hal_dma_ex.c ****     __HAL_DMA_CLEAR_FLAG (hdma, __HAL_DMA_GET_HT_FLAG_INDEX(hdma));
 548              		.loc 1 210 0 discriminator 122
 549 0294 A2F56872 		sub	r2, r2, #928
 550 0298 9342     		cmp	r3, r2
 551 029a 25D0     		beq	.L95
 210:/Users/Qianqian/Desktop/MPS/stm32lib/Drivers/STM32F7xx_HAL_Driver/Src/stm32f7xx_hal_dma_ex.c ****     __HAL_DMA_CLEAR_FLAG (hdma, __HAL_DMA_GET_HT_FLAG_INDEX(hdma));
 552              		.loc 1 210 0 discriminator 124
 553 029c 02F58062 		add	r2, r2, #1024
 554 02a0 9342     		cmp	r3, r2
 555 02a2 02D0     		beq	.L307
 210:/Users/Qianqian/Desktop/MPS/stm32lib/Drivers/STM32F7xx_HAL_Driver/Src/stm32f7xx_hal_dma_ex.c ****     __HAL_DMA_CLEAR_FLAG (hdma, __HAL_DMA_GET_HT_FLAG_INDEX(hdma));
 556              		.loc 1 210 0
 557 02a4 4FF00063 		mov	r3, #134217728
 558 02a8 03E0     		b	.L24
 559              	.L307:
 560 02aa 4FF40013 		mov	r3, #2097152
 561 02ae 00E0     		b	.L24
 562              	.L85:
 563 02b0 2023     		movs	r3, #32
 564              	.L24:
 210:/Users/Qianqian/Desktop/MPS/stm32lib/Drivers/STM32F7xx_HAL_Driver/Src/stm32f7xx_hal_dma_ex.c ****     __HAL_DMA_CLEAR_FLAG (hdma, __HAL_DMA_GET_HT_FLAG_INDEX(hdma));
 565              		.loc 1 210 0 discriminator 151
 566 02b2 344A     		ldr	r2, .L325+16
 567 02b4 D360     		str	r3, [r2, #12]
 568              	.LVL36:
 569 02b6 0DE7     		b	.L20
 570              	.LVL37:
 571              	.L86:
 210:/Users/Qianqian/Desktop/MPS/stm32lib/Drivers/STM32F7xx_HAL_Driver/Src/stm32f7xx_hal_dma_ex.c ****     __HAL_DMA_CLEAR_FLAG (hdma, __HAL_DMA_GET_HT_FLAG_INDEX(hdma));
 572              		.loc 1 210 0
 573 02b8 2023     		movs	r3, #32
 574 02ba FAE7     		b	.L24
 575              	.L87:
 576 02bc 2023     		movs	r3, #32
 577 02be F8E7     		b	.L24
 578              	.L88:
 579 02c0 2023     		movs	r3, #32
 580 02c2 F6E7     		b	.L24
 581              	.L89:
 582 02c4 4FF40063 		mov	r3, #2048
 583 02c8 F3E7     		b	.L24
 584              	.L90:
 585 02ca 4FF40063 		mov	r3, #2048
 586 02ce F0E7     		b	.L24
 587              	.L91:
 588 02d0 4FF40063 		mov	r3, #2048
 589 02d4 EDE7     		b	.L24
 590              	.L92:
 591 02d6 4FF40063 		mov	r3, #2048
 592 02da EAE7     		b	.L24
 593              	.L93:
 594 02dc 4FF40013 		mov	r3, #2097152
 595 02e0 E7E7     		b	.L24
 596              	.L94:
 597 02e2 4FF40013 		mov	r3, #2097152
 598 02e6 E4E7     		b	.L24
 599              	.L95:
 600 02e8 4FF40013 		mov	r3, #2097152
 601 02ec E1E7     		b	.L24
 602              	.L23:
 210:/Users/Qianqian/Desktop/MPS/stm32lib/Drivers/STM32F7xx_HAL_Driver/Src/stm32f7xx_hal_dma_ex.c ****     __HAL_DMA_CLEAR_FLAG (hdma, __HAL_DMA_GET_HT_FLAG_INDEX(hdma));
 603              		.loc 1 210 0 discriminator 103
 604 02ee 264A     		ldr	r2, .L325+20
 605 02f0 9342     		cmp	r3, r2
 606 02f2 31D0     		beq	.L97
 210:/Users/Qianqian/Desktop/MPS/stm32lib/Drivers/STM32F7xx_HAL_Driver/Src/stm32f7xx_hal_dma_ex.c ****     __HAL_DMA_CLEAR_FLAG (hdma, __HAL_DMA_GET_HT_FLAG_INDEX(hdma));
 607              		.loc 1 210 0 discriminator 153
 608 02f4 02F58062 		add	r2, r2, #1024
 609 02f8 9342     		cmp	r3, r2
 610 02fa 31D0     		beq	.L98
 210:/Users/Qianqian/Desktop/MPS/stm32lib/Drivers/STM32F7xx_HAL_Driver/Src/stm32f7xx_hal_dma_ex.c ****     __HAL_DMA_CLEAR_FLAG (hdma, __HAL_DMA_GET_HT_FLAG_INDEX(hdma));
 611              		.loc 1 210 0 discriminator 155
 612 02fc A2F56872 		sub	r2, r2, #928
 613 0300 9342     		cmp	r3, r2
 614 0302 2FD0     		beq	.L99
 210:/Users/Qianqian/Desktop/MPS/stm32lib/Drivers/STM32F7xx_HAL_Driver/Src/stm32f7xx_hal_dma_ex.c ****     __HAL_DMA_CLEAR_FLAG (hdma, __HAL_DMA_GET_HT_FLAG_INDEX(hdma));
 615              		.loc 1 210 0 discriminator 157
 616 0304 02F58062 		add	r2, r2, #1024
 617 0308 9342     		cmp	r3, r2
 618 030a 2DD0     		beq	.L100
 210:/Users/Qianqian/Desktop/MPS/stm32lib/Drivers/STM32F7xx_HAL_Driver/Src/stm32f7xx_hal_dma_ex.c ****     __HAL_DMA_CLEAR_FLAG (hdma, __HAL_DMA_GET_HT_FLAG_INDEX(hdma));
 619              		.loc 1 210 0 discriminator 159
 620 030c A2F58962 		sub	r2, r2, #1096
 621 0310 9342     		cmp	r3, r2
 622 0312 2BD0     		beq	.L101
 210:/Users/Qianqian/Desktop/MPS/stm32lib/Drivers/STM32F7xx_HAL_Driver/Src/stm32f7xx_hal_dma_ex.c ****     __HAL_DMA_CLEAR_FLAG (hdma, __HAL_DMA_GET_HT_FLAG_INDEX(hdma));
 623              		.loc 1 210 0 discriminator 161
 624 0314 02F58062 		add	r2, r2, #1024
 625 0318 9342     		cmp	r3, r2
 626 031a 37D0     		beq	.L102
 210:/Users/Qianqian/Desktop/MPS/stm32lib/Drivers/STM32F7xx_HAL_Driver/Src/stm32f7xx_hal_dma_ex.c ****     __HAL_DMA_CLEAR_FLAG (hdma, __HAL_DMA_GET_HT_FLAG_INDEX(hdma));
 627              		.loc 1 210 0 discriminator 163
 628 031c A2F56872 		sub	r2, r2, #928
 629 0320 9342     		cmp	r3, r2
 630 0322 36D0     		beq	.L103
 210:/Users/Qianqian/Desktop/MPS/stm32lib/Drivers/STM32F7xx_HAL_Driver/Src/stm32f7xx_hal_dma_ex.c ****     __HAL_DMA_CLEAR_FLAG (hdma, __HAL_DMA_GET_HT_FLAG_INDEX(hdma));
 631              		.loc 1 210 0 discriminator 165
 632 0324 02F58062 		add	r2, r2, #1024
 633 0328 9342     		cmp	r3, r2
 634 032a 35D0     		beq	.L104
 210:/Users/Qianqian/Desktop/MPS/stm32lib/Drivers/STM32F7xx_HAL_Driver/Src/stm32f7xx_hal_dma_ex.c ****     __HAL_DMA_CLEAR_FLAG (hdma, __HAL_DMA_GET_HT_FLAG_INDEX(hdma));
 635              		.loc 1 210 0 discriminator 167
 636 032c A2F58962 		sub	r2, r2, #1096
 637 0330 9342     		cmp	r3, r2
 638 0332 34D0     		beq	.L105
 210:/Users/Qianqian/Desktop/MPS/stm32lib/Drivers/STM32F7xx_HAL_Driver/Src/stm32f7xx_hal_dma_ex.c ****     __HAL_DMA_CLEAR_FLAG (hdma, __HAL_DMA_GET_HT_FLAG_INDEX(hdma));
 639              		.loc 1 210 0 discriminator 169
 640 0334 02F58062 		add	r2, r2, #1024
 641 0338 9342     		cmp	r3, r2
 642 033a 33D0     		beq	.L106
 210:/Users/Qianqian/Desktop/MPS/stm32lib/Drivers/STM32F7xx_HAL_Driver/Src/stm32f7xx_hal_dma_ex.c ****     __HAL_DMA_CLEAR_FLAG (hdma, __HAL_DMA_GET_HT_FLAG_INDEX(hdma));
 643              		.loc 1 210 0 discriminator 171
 644 033c A2F56872 		sub	r2, r2, #928
 645 0340 9342     		cmp	r3, r2
 646 0342 32D0     		beq	.L107
 210:/Users/Qianqian/Desktop/MPS/stm32lib/Drivers/STM32F7xx_HAL_Driver/Src/stm32f7xx_hal_dma_ex.c ****     __HAL_DMA_CLEAR_FLAG (hdma, __HAL_DMA_GET_HT_FLAG_INDEX(hdma));
 647              		.loc 1 210 0 discriminator 173
 648 0344 02F58062 		add	r2, r2, #1024
 649 0348 9342     		cmp	r3, r2
 650 034a 02D0     		beq	.L308
 210:/Users/Qianqian/Desktop/MPS/stm32lib/Drivers/STM32F7xx_HAL_Driver/Src/stm32f7xx_hal_dma_ex.c ****     __HAL_DMA_CLEAR_FLAG (hdma, __HAL_DMA_GET_HT_FLAG_INDEX(hdma));
 651              		.loc 1 210 0
 652 034c 4FF00063 		mov	r3, #134217728
 653 0350 03E0     		b	.L25
 654              	.L308:
 655 0352 4FF40013 		mov	r3, #2097152
 656 0356 00E0     		b	.L25
 657              	.L97:
 658 0358 2023     		movs	r3, #32
 659              	.L25:
 210:/Users/Qianqian/Desktop/MPS/stm32lib/Drivers/STM32F7xx_HAL_Driver/Src/stm32f7xx_hal_dma_ex.c ****     __HAL_DMA_CLEAR_FLAG (hdma, __HAL_DMA_GET_HT_FLAG_INDEX(hdma));
 660              		.loc 1 210 0 discriminator 200
 661 035a 0A4A     		ldr	r2, .L325+16
 662 035c 9360     		str	r3, [r2, #8]
 663              	.LVL38:
 664 035e B9E6     		b	.L20
 665              	.LVL39:
 666              	.L98:
 210:/Users/Qianqian/Desktop/MPS/stm32lib/Drivers/STM32F7xx_HAL_Driver/Src/stm32f7xx_hal_dma_ex.c ****     __HAL_DMA_CLEAR_FLAG (hdma, __HAL_DMA_GET_HT_FLAG_INDEX(hdma));
 667              		.loc 1 210 0
 668 0360 2023     		movs	r3, #32
 669 0362 FAE7     		b	.L25
 670              	.L99:
 671 0364 2023     		movs	r3, #32
 672 0366 F8E7     		b	.L25
 673              	.L100:
 674 0368 2023     		movs	r3, #32
 675 036a F6E7     		b	.L25
 676              	.L101:
 677 036c 4FF40063 		mov	r3, #2048
 678 0370 F3E7     		b	.L25
 679              	.L326:
 680 0372 00BF     		.align	2
 681              	.L325:
 682 0374 58640240 		.word	1073898584
 683 0378 00640240 		.word	1073898496
 684 037c B8600240 		.word	1073897656
 685 0380 58600240 		.word	1073897560
 686 0384 00600240 		.word	1073897472
 687 0388 10600240 		.word	1073897488
 688              	.L102:
 689 038c 4FF40063 		mov	r3, #2048
 690 0390 E3E7     		b	.L25
 691              	.L103:
 692 0392 4FF40063 		mov	r3, #2048
 693 0396 E0E7     		b	.L25
 694              	.L104:
 695 0398 4FF40063 		mov	r3, #2048
 696 039c DDE7     		b	.L25
 697              	.L105:
 698 039e 4FF40013 		mov	r3, #2097152
 699 03a2 DAE7     		b	.L25
 700              	.L106:
 701 03a4 4FF40013 		mov	r3, #2097152
 702 03a8 D7E7     		b	.L25
 703              	.L107:
 704 03aa 4FF40013 		mov	r3, #2097152
 705 03ae D4E7     		b	.L25
 706              	.LVL40:
 707              	.L305:
 211:/Users/Qianqian/Desktop/MPS/stm32lib/Drivers/STM32F7xx_HAL_Driver/Src/stm32f7xx_hal_dma_ex.c ****     __HAL_DMA_CLEAR_FLAG (hdma, __HAL_DMA_GET_TE_FLAG_INDEX(hdma));
 708              		.loc 1 211 0 is_stmt 1
 709 03b0 4FF48012 		mov	r2, #1048576
 710 03b4 00E0     		b	.L27
 711              	.L109:
 712 03b6 1022     		movs	r2, #16
 713              	.L27:
 211:/Users/Qianqian/Desktop/MPS/stm32lib/Drivers/STM32F7xx_HAL_Driver/Src/stm32f7xx_hal_dma_ex.c ****     __HAL_DMA_CLEAR_FLAG (hdma, __HAL_DMA_GET_TE_FLAG_INDEX(hdma));
 714              		.loc 1 211 0 is_stmt 0 discriminator 50
 715 03b8 B24B     		ldr	r3, .L327
 716 03ba DA60     		str	r2, [r3, #12]
 717              	.L28:
 212:/Users/Qianqian/Desktop/MPS/stm32lib/Drivers/STM32F7xx_HAL_Driver/Src/stm32f7xx_hal_dma_ex.c ****     __HAL_DMA_CLEAR_FLAG (hdma, __HAL_DMA_GET_DME_FLAG_INDEX(hdma));
 718              		.loc 1 212 0 is_stmt 1
 719 03bc 2368     		ldr	r3, [r4]
 720 03be B24A     		ldr	r2, .L327+4
 721 03c0 9342     		cmp	r3, r2
 722 03c2 40F2CD81 		bls	.L34
 212:/Users/Qianqian/Desktop/MPS/stm32lib/Drivers/STM32F7xx_HAL_Driver/Src/stm32f7xx_hal_dma_ex.c ****     __HAL_DMA_CLEAR_FLAG (hdma, __HAL_DMA_GET_DME_FLAG_INDEX(hdma));
 723              		.loc 1 212 0 is_stmt 0 discriminator 1
 724 03c6 A2F58962 		sub	r2, r2, #1096
 725 03ca 9342     		cmp	r3, r2
 726 03cc 00F06681 		beq	.L157
 212:/Users/Qianqian/Desktop/MPS/stm32lib/Drivers/STM32F7xx_HAL_Driver/Src/stm32f7xx_hal_dma_ex.c ****     __HAL_DMA_CLEAR_FLAG (hdma, __HAL_DMA_GET_DME_FLAG_INDEX(hdma));
 727              		.loc 1 212 0 discriminator 3
 728 03d0 02F58062 		add	r2, r2, #1024
 729 03d4 9342     		cmp	r3, r2
 730 03d6 00F0A881 		beq	.L158
 212:/Users/Qianqian/Desktop/MPS/stm32lib/Drivers/STM32F7xx_HAL_Driver/Src/stm32f7xx_hal_dma_ex.c ****     __HAL_DMA_CLEAR_FLAG (hdma, __HAL_DMA_GET_DME_FLAG_INDEX(hdma));
 731              		.loc 1 212 0 discriminator 5
 732 03da A2F56872 		sub	r2, r2, #928
 733 03de 9342     		cmp	r3, r2
 734 03e0 00F0A581 		beq	.L159
 212:/Users/Qianqian/Desktop/MPS/stm32lib/Drivers/STM32F7xx_HAL_Driver/Src/stm32f7xx_hal_dma_ex.c ****     __HAL_DMA_CLEAR_FLAG (hdma, __HAL_DMA_GET_DME_FLAG_INDEX(hdma));
 735              		.loc 1 212 0 discriminator 7
 736 03e4 02F58062 		add	r2, r2, #1024
 737 03e8 9342     		cmp	r3, r2
 738 03ea 00F0A281 		beq	.L160
 212:/Users/Qianqian/Desktop/MPS/stm32lib/Drivers/STM32F7xx_HAL_Driver/Src/stm32f7xx_hal_dma_ex.c ****     __HAL_DMA_CLEAR_FLAG (hdma, __HAL_DMA_GET_DME_FLAG_INDEX(hdma));
 739              		.loc 1 212 0 discriminator 9
 740 03ee A2F58962 		sub	r2, r2, #1096
 741 03f2 9342     		cmp	r3, r2
 742 03f4 00F09F81 		beq	.L161
 212:/Users/Qianqian/Desktop/MPS/stm32lib/Drivers/STM32F7xx_HAL_Driver/Src/stm32f7xx_hal_dma_ex.c ****     __HAL_DMA_CLEAR_FLAG (hdma, __HAL_DMA_GET_DME_FLAG_INDEX(hdma));
 743              		.loc 1 212 0 discriminator 11
 744 03f8 02F58062 		add	r2, r2, #1024
 745 03fc 9342     		cmp	r3, r2
 746 03fe 00F09D81 		beq	.L162
 212:/Users/Qianqian/Desktop/MPS/stm32lib/Drivers/STM32F7xx_HAL_Driver/Src/stm32f7xx_hal_dma_ex.c ****     __HAL_DMA_CLEAR_FLAG (hdma, __HAL_DMA_GET_DME_FLAG_INDEX(hdma));
 747              		.loc 1 212 0 discriminator 13
 748 0402 A2F56872 		sub	r2, r2, #928
 749 0406 9342     		cmp	r3, r2
 750 0408 00F09B81 		beq	.L163
 212:/Users/Qianqian/Desktop/MPS/stm32lib/Drivers/STM32F7xx_HAL_Driver/Src/stm32f7xx_hal_dma_ex.c ****     __HAL_DMA_CLEAR_FLAG (hdma, __HAL_DMA_GET_DME_FLAG_INDEX(hdma));
 751              		.loc 1 212 0 discriminator 15
 752 040c 02F58062 		add	r2, r2, #1024
 753 0410 9342     		cmp	r3, r2
 754 0412 00F09981 		beq	.L164
 212:/Users/Qianqian/Desktop/MPS/stm32lib/Drivers/STM32F7xx_HAL_Driver/Src/stm32f7xx_hal_dma_ex.c ****     __HAL_DMA_CLEAR_FLAG (hdma, __HAL_DMA_GET_DME_FLAG_INDEX(hdma));
 755              		.loc 1 212 0 discriminator 17
 756 0416 A2F58962 		sub	r2, r2, #1096
 757 041a 9342     		cmp	r3, r2
 758 041c 00F09781 		beq	.L165
 212:/Users/Qianqian/Desktop/MPS/stm32lib/Drivers/STM32F7xx_HAL_Driver/Src/stm32f7xx_hal_dma_ex.c ****     __HAL_DMA_CLEAR_FLAG (hdma, __HAL_DMA_GET_DME_FLAG_INDEX(hdma));
 759              		.loc 1 212 0 discriminator 19
 760 0420 02F58062 		add	r2, r2, #1024
 761 0424 9342     		cmp	r3, r2
 762 0426 00F09581 		beq	.L166
 212:/Users/Qianqian/Desktop/MPS/stm32lib/Drivers/STM32F7xx_HAL_Driver/Src/stm32f7xx_hal_dma_ex.c ****     __HAL_DMA_CLEAR_FLAG (hdma, __HAL_DMA_GET_DME_FLAG_INDEX(hdma));
 763              		.loc 1 212 0 discriminator 21
 764 042a A2F56872 		sub	r2, r2, #928
 765 042e 9342     		cmp	r3, r2
 766 0430 00F09381 		beq	.L167
 212:/Users/Qianqian/Desktop/MPS/stm32lib/Drivers/STM32F7xx_HAL_Driver/Src/stm32f7xx_hal_dma_ex.c ****     __HAL_DMA_CLEAR_FLAG (hdma, __HAL_DMA_GET_DME_FLAG_INDEX(hdma));
 767              		.loc 1 212 0 discriminator 23
 768 0434 02F58062 		add	r2, r2, #1024
 769 0438 9342     		cmp	r3, r2
 770 043a 00F02081 		beq	.L309
 212:/Users/Qianqian/Desktop/MPS/stm32lib/Drivers/STM32F7xx_HAL_Driver/Src/stm32f7xx_hal_dma_ex.c ****     __HAL_DMA_CLEAR_FLAG (hdma, __HAL_DMA_GET_DME_FLAG_INDEX(hdma));
 771              		.loc 1 212 0
 772 043e 4FF00072 		mov	r2, #33554432
 773 0442 2CE1     		b	.L35
 774              	.L110:
 211:/Users/Qianqian/Desktop/MPS/stm32lib/Drivers/STM32F7xx_HAL_Driver/Src/stm32f7xx_hal_dma_ex.c ****     __HAL_DMA_CLEAR_FLAG (hdma, __HAL_DMA_GET_TE_FLAG_INDEX(hdma));
 775              		.loc 1 211 0 is_stmt 1
 776 0444 1022     		movs	r2, #16
 777 0446 B7E7     		b	.L27
 778              	.L111:
 779 0448 1022     		movs	r2, #16
 780 044a B5E7     		b	.L27
 781              	.L112:
 782 044c 1022     		movs	r2, #16
 783 044e B3E7     		b	.L27
 784              	.L113:
 785 0450 4FF48062 		mov	r2, #1024
 786 0454 B0E7     		b	.L27
 787              	.L114:
 788 0456 4FF48062 		mov	r2, #1024
 789 045a ADE7     		b	.L27
 790              	.L115:
 791 045c 4FF48062 		mov	r2, #1024
 792 0460 AAE7     		b	.L27
 793              	.L116:
 794 0462 4FF48062 		mov	r2, #1024
 795 0466 A7E7     		b	.L27
 796              	.L117:
 797 0468 4FF48012 		mov	r2, #1048576
 798 046c A4E7     		b	.L27
 799              	.L118:
 800 046e 4FF48012 		mov	r2, #1048576
 801 0472 A1E7     		b	.L27
 802              	.L119:
 803 0474 4FF48012 		mov	r2, #1048576
 804 0478 9EE7     		b	.L27
 805              	.L26:
 211:/Users/Qianqian/Desktop/MPS/stm32lib/Drivers/STM32F7xx_HAL_Driver/Src/stm32f7xx_hal_dma_ex.c ****     __HAL_DMA_CLEAR_FLAG (hdma, __HAL_DMA_GET_TE_FLAG_INDEX(hdma));
 806              		.loc 1 211 0 is_stmt 0 discriminator 2
 807 047a 844A     		ldr	r2, .L327+8
 808 047c 9342     		cmp	r3, r2
 809 047e 53D9     		bls	.L29
 211:/Users/Qianqian/Desktop/MPS/stm32lib/Drivers/STM32F7xx_HAL_Driver/Src/stm32f7xx_hal_dma_ex.c ****     __HAL_DMA_CLEAR_FLAG (hdma, __HAL_DMA_GET_TE_FLAG_INDEX(hdma));
 810              		.loc 1 211 0 discriminator 51
 811 0480 A83A     		subs	r2, r2, #168
 812 0482 9342     		cmp	r3, r2
 813 0484 31D0     		beq	.L121
 211:/Users/Qianqian/Desktop/MPS/stm32lib/Drivers/STM32F7xx_HAL_Driver/Src/stm32f7xx_hal_dma_ex.c ****     __HAL_DMA_CLEAR_FLAG (hdma, __HAL_DMA_GET_TE_FLAG_INDEX(hdma));
 814              		.loc 1 211 0 discriminator 53
 815 0486 02F58062 		add	r2, r2, #1024
 816 048a 9342     		cmp	r3, r2
 817 048c 31D0     		beq	.L122
 211:/Users/Qianqian/Desktop/MPS/stm32lib/Drivers/STM32F7xx_HAL_Driver/Src/stm32f7xx_hal_dma_ex.c ****     __HAL_DMA_CLEAR_FLAG (hdma, __HAL_DMA_GET_TE_FLAG_INDEX(hdma));
 818              		.loc 1 211 0 discriminator 55
 819 048e A2F56872 		sub	r2, r2, #928
 820 0492 9342     		cmp	r3, r2
 821 0494 2FD0     		beq	.L123
 211:/Users/Qianqian/Desktop/MPS/stm32lib/Drivers/STM32F7xx_HAL_Driver/Src/stm32f7xx_hal_dma_ex.c ****     __HAL_DMA_CLEAR_FLAG (hdma, __HAL_DMA_GET_TE_FLAG_INDEX(hdma));
 822              		.loc 1 211 0 discriminator 57
 823 0496 02F58062 		add	r2, r2, #1024
 824 049a 9342     		cmp	r3, r2
 825 049c 2DD0     		beq	.L124
 211:/Users/Qianqian/Desktop/MPS/stm32lib/Drivers/STM32F7xx_HAL_Driver/Src/stm32f7xx_hal_dma_ex.c ****     __HAL_DMA_CLEAR_FLAG (hdma, __HAL_DMA_GET_TE_FLAG_INDEX(hdma));
 826              		.loc 1 211 0 discriminator 59
 827 049e A2F58962 		sub	r2, r2, #1096
 828 04a2 9342     		cmp	r3, r2
 829 04a4 2BD0     		beq	.L125
 211:/Users/Qianqian/Desktop/MPS/stm32lib/Drivers/STM32F7xx_HAL_Driver/Src/stm32f7xx_hal_dma_ex.c ****     __HAL_DMA_CLEAR_FLAG (hdma, __HAL_DMA_GET_TE_FLAG_INDEX(hdma));
 830              		.loc 1 211 0 discriminator 61
 831 04a6 02F58062 		add	r2, r2, #1024
 832 04aa 9342     		cmp	r3, r2
 833 04ac 2AD0     		beq	.L126
 211:/Users/Qianqian/Desktop/MPS/stm32lib/Drivers/STM32F7xx_HAL_Driver/Src/stm32f7xx_hal_dma_ex.c ****     __HAL_DMA_CLEAR_FLAG (hdma, __HAL_DMA_GET_TE_FLAG_INDEX(hdma));
 834              		.loc 1 211 0 discriminator 63
 835 04ae A2F56872 		sub	r2, r2, #928
 836 04b2 9342     		cmp	r3, r2
 837 04b4 29D0     		beq	.L127
 211:/Users/Qianqian/Desktop/MPS/stm32lib/Drivers/STM32F7xx_HAL_Driver/Src/stm32f7xx_hal_dma_ex.c ****     __HAL_DMA_CLEAR_FLAG (hdma, __HAL_DMA_GET_TE_FLAG_INDEX(hdma));
 838              		.loc 1 211 0 discriminator 65
 839 04b6 02F58062 		add	r2, r2, #1024
 840 04ba 9342     		cmp	r3, r2
 841 04bc 28D0     		beq	.L128
 211:/Users/Qianqian/Desktop/MPS/stm32lib/Drivers/STM32F7xx_HAL_Driver/Src/stm32f7xx_hal_dma_ex.c ****     __HAL_DMA_CLEAR_FLAG (hdma, __HAL_DMA_GET_TE_FLAG_INDEX(hdma));
 842              		.loc 1 211 0 discriminator 67
 843 04be A2F58962 		sub	r2, r2, #1096
 844 04c2 9342     		cmp	r3, r2
 845 04c4 27D0     		beq	.L129
 211:/Users/Qianqian/Desktop/MPS/stm32lib/Drivers/STM32F7xx_HAL_Driver/Src/stm32f7xx_hal_dma_ex.c ****     __HAL_DMA_CLEAR_FLAG (hdma, __HAL_DMA_GET_TE_FLAG_INDEX(hdma));
 846              		.loc 1 211 0 discriminator 69
 847 04c6 02F58062 		add	r2, r2, #1024
 848 04ca 9342     		cmp	r3, r2
 849 04cc 26D0     		beq	.L130
 211:/Users/Qianqian/Desktop/MPS/stm32lib/Drivers/STM32F7xx_HAL_Driver/Src/stm32f7xx_hal_dma_ex.c ****     __HAL_DMA_CLEAR_FLAG (hdma, __HAL_DMA_GET_TE_FLAG_INDEX(hdma));
 850              		.loc 1 211 0 discriminator 71
 851 04ce A2F56872 		sub	r2, r2, #928
 852 04d2 9342     		cmp	r3, r2
 853 04d4 25D0     		beq	.L131
 211:/Users/Qianqian/Desktop/MPS/stm32lib/Drivers/STM32F7xx_HAL_Driver/Src/stm32f7xx_hal_dma_ex.c ****     __HAL_DMA_CLEAR_FLAG (hdma, __HAL_DMA_GET_TE_FLAG_INDEX(hdma));
 854              		.loc 1 211 0 discriminator 73
 855 04d6 02F58062 		add	r2, r2, #1024
 856 04da 9342     		cmp	r3, r2
 857 04dc 02D0     		beq	.L310
 211:/Users/Qianqian/Desktop/MPS/stm32lib/Drivers/STM32F7xx_HAL_Driver/Src/stm32f7xx_hal_dma_ex.c ****     __HAL_DMA_CLEAR_FLAG (hdma, __HAL_DMA_GET_TE_FLAG_INDEX(hdma));
 858              		.loc 1 211 0
 859 04de 4FF08062 		mov	r2, #67108864
 860 04e2 03E0     		b	.L30
 861              	.L310:
 862 04e4 4FF48012 		mov	r2, #1048576
 863 04e8 00E0     		b	.L30
 864              	.L121:
 865 04ea 1022     		movs	r2, #16
 866              	.L30:
 211:/Users/Qianqian/Desktop/MPS/stm32lib/Drivers/STM32F7xx_HAL_Driver/Src/stm32f7xx_hal_dma_ex.c ****     __HAL_DMA_CLEAR_FLAG (hdma, __HAL_DMA_GET_TE_FLAG_INDEX(hdma));
 867              		.loc 1 211 0 discriminator 100
 868 04ec 654B     		ldr	r3, .L327
 869 04ee 9A60     		str	r2, [r3, #8]
 870 04f0 64E7     		b	.L28
 871              	.L122:
 211:/Users/Qianqian/Desktop/MPS/stm32lib/Drivers/STM32F7xx_HAL_Driver/Src/stm32f7xx_hal_dma_ex.c ****     __HAL_DMA_CLEAR_FLAG (hdma, __HAL_DMA_GET_TE_FLAG_INDEX(hdma));
 872              		.loc 1 211 0
 873 04f2 1022     		movs	r2, #16
 874 04f4 FAE7     		b	.L30
 875              	.L123:
 876 04f6 1022     		movs	r2, #16
 877 04f8 F8E7     		b	.L30
 878              	.L124:
 879 04fa 1022     		movs	r2, #16
 880 04fc F6E7     		b	.L30
 881              	.L125:
 882 04fe 4FF48062 		mov	r2, #1024
 883 0502 F3E7     		b	.L30
 884              	.L126:
 885 0504 4FF48062 		mov	r2, #1024
 886 0508 F0E7     		b	.L30
 887              	.L127:
 888 050a 4FF48062 		mov	r2, #1024
 889 050e EDE7     		b	.L30
 890              	.L128:
 891 0510 4FF48062 		mov	r2, #1024
 892 0514 EAE7     		b	.L30
 893              	.L129:
 894 0516 4FF48012 		mov	r2, #1048576
 895 051a E7E7     		b	.L30
 896              	.L130:
 897 051c 4FF48012 		mov	r2, #1048576
 898 0520 E4E7     		b	.L30
 899              	.L131:
 900 0522 4FF48012 		mov	r2, #1048576
 901 0526 E1E7     		b	.L30
 902              	.L29:
 211:/Users/Qianqian/Desktop/MPS/stm32lib/Drivers/STM32F7xx_HAL_Driver/Src/stm32f7xx_hal_dma_ex.c ****     __HAL_DMA_CLEAR_FLAG (hdma, __HAL_DMA_GET_TE_FLAG_INDEX(hdma));
 903              		.loc 1 211 0 discriminator 52
 904 0528 594A     		ldr	r2, .L327+12
 905 052a 9342     		cmp	r3, r2
 906 052c 53D9     		bls	.L31
 211:/Users/Qianqian/Desktop/MPS/stm32lib/Drivers/STM32F7xx_HAL_Driver/Src/stm32f7xx_hal_dma_ex.c ****     __HAL_DMA_CLEAR_FLAG (hdma, __HAL_DMA_GET_TE_FLAG_INDEX(hdma));
 907              		.loc 1 211 0 discriminator 102
 908 052e 483A     		subs	r2, r2, #72
 909 0530 9342     		cmp	r3, r2
 910 0532 31D0     		beq	.L133
 211:/Users/Qianqian/Desktop/MPS/stm32lib/Drivers/STM32F7xx_HAL_Driver/Src/stm32f7xx_hal_dma_ex.c ****     __HAL_DMA_CLEAR_FLAG (hdma, __HAL_DMA_GET_TE_FLAG_INDEX(hdma));
 911              		.loc 1 211 0 discriminator 104
 912 0534 02F58062 		add	r2, r2, #1024
 913 0538 9342     		cmp	r3, r2
 914 053a 31D0     		beq	.L134
 211:/Users/Qianqian/Desktop/MPS/stm32lib/Drivers/STM32F7xx_HAL_Driver/Src/stm32f7xx_hal_dma_ex.c ****     __HAL_DMA_CLEAR_FLAG (hdma, __HAL_DMA_GET_TE_FLAG_INDEX(hdma));
 915              		.loc 1 211 0 discriminator 106
 916 053c A2F56872 		sub	r2, r2, #928
 917 0540 9342     		cmp	r3, r2
 918 0542 2FD0     		beq	.L135
 211:/Users/Qianqian/Desktop/MPS/stm32lib/Drivers/STM32F7xx_HAL_Driver/Src/stm32f7xx_hal_dma_ex.c ****     __HAL_DMA_CLEAR_FLAG (hdma, __HAL_DMA_GET_TE_FLAG_INDEX(hdma));
 919              		.loc 1 211 0 discriminator 108
 920 0544 02F58062 		add	r2, r2, #1024
 921 0548 9342     		cmp	r3, r2
 922 054a 2DD0     		beq	.L136
 211:/Users/Qianqian/Desktop/MPS/stm32lib/Drivers/STM32F7xx_HAL_Driver/Src/stm32f7xx_hal_dma_ex.c ****     __HAL_DMA_CLEAR_FLAG (hdma, __HAL_DMA_GET_TE_FLAG_INDEX(hdma));
 923              		.loc 1 211 0 discriminator 110
 924 054c A2F58962 		sub	r2, r2, #1096
 925 0550 9342     		cmp	r3, r2
 926 0552 2BD0     		beq	.L137
 211:/Users/Qianqian/Desktop/MPS/stm32lib/Drivers/STM32F7xx_HAL_Driver/Src/stm32f7xx_hal_dma_ex.c ****     __HAL_DMA_CLEAR_FLAG (hdma, __HAL_DMA_GET_TE_FLAG_INDEX(hdma));
 927              		.loc 1 211 0 discriminator 112
 928 0554 02F58062 		add	r2, r2, #1024
 929 0558 9342     		cmp	r3, r2
 930 055a 2AD0     		beq	.L138
 211:/Users/Qianqian/Desktop/MPS/stm32lib/Drivers/STM32F7xx_HAL_Driver/Src/stm32f7xx_hal_dma_ex.c ****     __HAL_DMA_CLEAR_FLAG (hdma, __HAL_DMA_GET_TE_FLAG_INDEX(hdma));
 931              		.loc 1 211 0 discriminator 114
 932 055c A2F56872 		sub	r2, r2, #928
 933 0560 9342     		cmp	r3, r2
 934 0562 29D0     		beq	.L139
 211:/Users/Qianqian/Desktop/MPS/stm32lib/Drivers/STM32F7xx_HAL_Driver/Src/stm32f7xx_hal_dma_ex.c ****     __HAL_DMA_CLEAR_FLAG (hdma, __HAL_DMA_GET_TE_FLAG_INDEX(hdma));
 935              		.loc 1 211 0 discriminator 116
 936 0564 02F58062 		add	r2, r2, #1024
 937 0568 9342     		cmp	r3, r2
 938 056a 28D0     		beq	.L140
 211:/Users/Qianqian/Desktop/MPS/stm32lib/Drivers/STM32F7xx_HAL_Driver/Src/stm32f7xx_hal_dma_ex.c ****     __HAL_DMA_CLEAR_FLAG (hdma, __HAL_DMA_GET_TE_FLAG_INDEX(hdma));
 939              		.loc 1 211 0 discriminator 118
 940 056c A2F58962 		sub	r2, r2, #1096
 941 0570 9342     		cmp	r3, r2
 942 0572 27D0     		beq	.L141
 211:/Users/Qianqian/Desktop/MPS/stm32lib/Drivers/STM32F7xx_HAL_Driver/Src/stm32f7xx_hal_dma_ex.c ****     __HAL_DMA_CLEAR_FLAG (hdma, __HAL_DMA_GET_TE_FLAG_INDEX(hdma));
 943              		.loc 1 211 0 discriminator 120
 944 0574 02F58062 		add	r2, r2, #1024
 945 0578 9342     		cmp	r3, r2
 946 057a 26D0     		beq	.L142
 211:/Users/Qianqian/Desktop/MPS/stm32lib/Drivers/STM32F7xx_HAL_Driver/Src/stm32f7xx_hal_dma_ex.c ****     __HAL_DMA_CLEAR_FLAG (hdma, __HAL_DMA_GET_TE_FLAG_INDEX(hdma));
 947              		.loc 1 211 0 discriminator 122
 948 057c A2F56872 		sub	r2, r2, #928
 949 0580 9342     		cmp	r3, r2
 950 0582 25D0     		beq	.L143
 211:/Users/Qianqian/Desktop/MPS/stm32lib/Drivers/STM32F7xx_HAL_Driver/Src/stm32f7xx_hal_dma_ex.c ****     __HAL_DMA_CLEAR_FLAG (hdma, __HAL_DMA_GET_TE_FLAG_INDEX(hdma));
 951              		.loc 1 211 0 discriminator 124
 952 0584 02F58062 		add	r2, r2, #1024
 953 0588 9342     		cmp	r3, r2
 954 058a 02D0     		beq	.L311
 211:/Users/Qianqian/Desktop/MPS/stm32lib/Drivers/STM32F7xx_HAL_Driver/Src/stm32f7xx_hal_dma_ex.c ****     __HAL_DMA_CLEAR_FLAG (hdma, __HAL_DMA_GET_TE_FLAG_INDEX(hdma));
 955              		.loc 1 211 0
 956 058c 4FF08063 		mov	r3, #67108864
 957 0590 03E0     		b	.L32
 958              	.L311:
 959 0592 4FF48013 		mov	r3, #1048576
 960 0596 00E0     		b	.L32
 961              	.L133:
 962 0598 1023     		movs	r3, #16
 963              	.L32:
 211:/Users/Qianqian/Desktop/MPS/stm32lib/Drivers/STM32F7xx_HAL_Driver/Src/stm32f7xx_hal_dma_ex.c ****     __HAL_DMA_CLEAR_FLAG (hdma, __HAL_DMA_GET_TE_FLAG_INDEX(hdma));
 964              		.loc 1 211 0 discriminator 151
 965 059a 3E4A     		ldr	r2, .L327+16
 966 059c D360     		str	r3, [r2, #12]
 967 059e 0DE7     		b	.L28
 968              	.L134:
 211:/Users/Qianqian/Desktop/MPS/stm32lib/Drivers/STM32F7xx_HAL_Driver/Src/stm32f7xx_hal_dma_ex.c ****     __HAL_DMA_CLEAR_FLAG (hdma, __HAL_DMA_GET_TE_FLAG_INDEX(hdma));
 969              		.loc 1 211 0
 970 05a0 1023     		movs	r3, #16
 971 05a2 FAE7     		b	.L32
 972              	.L135:
 973 05a4 1023     		movs	r3, #16
 974 05a6 F8E7     		b	.L32
 975              	.L136:
 976 05a8 1023     		movs	r3, #16
 977 05aa F6E7     		b	.L32
 978              	.L137:
 979 05ac 4FF48063 		mov	r3, #1024
 980 05b0 F3E7     		b	.L32
 981              	.L138:
 982 05b2 4FF48063 		mov	r3, #1024
 983 05b6 F0E7     		b	.L32
 984              	.L139:
 985 05b8 4FF48063 		mov	r3, #1024
 986 05bc EDE7     		b	.L32
 987              	.L140:
 988 05be 4FF48063 		mov	r3, #1024
 989 05c2 EAE7     		b	.L32
 990              	.L141:
 991 05c4 4FF48013 		mov	r3, #1048576
 992 05c8 E7E7     		b	.L32
 993              	.L142:
 994 05ca 4FF48013 		mov	r3, #1048576
 995 05ce E4E7     		b	.L32
 996              	.L143:
 997 05d0 4FF48013 		mov	r3, #1048576
 998 05d4 E1E7     		b	.L32
 999              	.L31:
 211:/Users/Qianqian/Desktop/MPS/stm32lib/Drivers/STM32F7xx_HAL_Driver/Src/stm32f7xx_hal_dma_ex.c ****     __HAL_DMA_CLEAR_FLAG (hdma, __HAL_DMA_GET_TE_FLAG_INDEX(hdma));
 1000              		.loc 1 211 0 discriminator 103
 1001 05d6 304A     		ldr	r2, .L327+20
 1002 05d8 9342     		cmp	r3, r2
 1003 05da 31D0     		beq	.L145
 211:/Users/Qianqian/Desktop/MPS/stm32lib/Drivers/STM32F7xx_HAL_Driver/Src/stm32f7xx_hal_dma_ex.c ****     __HAL_DMA_CLEAR_FLAG (hdma, __HAL_DMA_GET_TE_FLAG_INDEX(hdma));
 1004              		.loc 1 211 0 discriminator 153
 1005 05dc 02F58062 		add	r2, r2, #1024
 1006 05e0 9342     		cmp	r3, r2
 1007 05e2 31D0     		beq	.L146
 211:/Users/Qianqian/Desktop/MPS/stm32lib/Drivers/STM32F7xx_HAL_Driver/Src/stm32f7xx_hal_dma_ex.c ****     __HAL_DMA_CLEAR_FLAG (hdma, __HAL_DMA_GET_TE_FLAG_INDEX(hdma));
 1008              		.loc 1 211 0 discriminator 155
 1009 05e4 A2F56872 		sub	r2, r2, #928
 1010 05e8 9342     		cmp	r3, r2
 1011 05ea 2FD0     		beq	.L147
 211:/Users/Qianqian/Desktop/MPS/stm32lib/Drivers/STM32F7xx_HAL_Driver/Src/stm32f7xx_hal_dma_ex.c ****     __HAL_DMA_CLEAR_FLAG (hdma, __HAL_DMA_GET_TE_FLAG_INDEX(hdma));
 1012              		.loc 1 211 0 discriminator 157
 1013 05ec 02F58062 		add	r2, r2, #1024
 1014 05f0 9342     		cmp	r3, r2
 1015 05f2 2DD0     		beq	.L148
 211:/Users/Qianqian/Desktop/MPS/stm32lib/Drivers/STM32F7xx_HAL_Driver/Src/stm32f7xx_hal_dma_ex.c ****     __HAL_DMA_CLEAR_FLAG (hdma, __HAL_DMA_GET_TE_FLAG_INDEX(hdma));
 1016              		.loc 1 211 0 discriminator 159
 1017 05f4 A2F58962 		sub	r2, r2, #1096
 1018 05f8 9342     		cmp	r3, r2
 1019 05fa 2BD0     		beq	.L149
 211:/Users/Qianqian/Desktop/MPS/stm32lib/Drivers/STM32F7xx_HAL_Driver/Src/stm32f7xx_hal_dma_ex.c ****     __HAL_DMA_CLEAR_FLAG (hdma, __HAL_DMA_GET_TE_FLAG_INDEX(hdma));
 1020              		.loc 1 211 0 discriminator 161
 1021 05fc 02F58062 		add	r2, r2, #1024
 1022 0600 9342     		cmp	r3, r2
 1023 0602 2AD0     		beq	.L150
 211:/Users/Qianqian/Desktop/MPS/stm32lib/Drivers/STM32F7xx_HAL_Driver/Src/stm32f7xx_hal_dma_ex.c ****     __HAL_DMA_CLEAR_FLAG (hdma, __HAL_DMA_GET_TE_FLAG_INDEX(hdma));
 1024              		.loc 1 211 0 discriminator 163
 1025 0604 A2F56872 		sub	r2, r2, #928
 1026 0608 9342     		cmp	r3, r2
 1027 060a 29D0     		beq	.L151
 211:/Users/Qianqian/Desktop/MPS/stm32lib/Drivers/STM32F7xx_HAL_Driver/Src/stm32f7xx_hal_dma_ex.c ****     __HAL_DMA_CLEAR_FLAG (hdma, __HAL_DMA_GET_TE_FLAG_INDEX(hdma));
 1028              		.loc 1 211 0 discriminator 165
 1029 060c 02F58062 		add	r2, r2, #1024
 1030 0610 9342     		cmp	r3, r2
 1031 0612 28D0     		beq	.L152
 211:/Users/Qianqian/Desktop/MPS/stm32lib/Drivers/STM32F7xx_HAL_Driver/Src/stm32f7xx_hal_dma_ex.c ****     __HAL_DMA_CLEAR_FLAG (hdma, __HAL_DMA_GET_TE_FLAG_INDEX(hdma));
 1032              		.loc 1 211 0 discriminator 167
 1033 0614 A2F58962 		sub	r2, r2, #1096
 1034 0618 9342     		cmp	r3, r2
 1035 061a 27D0     		beq	.L153
 211:/Users/Qianqian/Desktop/MPS/stm32lib/Drivers/STM32F7xx_HAL_Driver/Src/stm32f7xx_hal_dma_ex.c ****     __HAL_DMA_CLEAR_FLAG (hdma, __HAL_DMA_GET_TE_FLAG_INDEX(hdma));
 1036              		.loc 1 211 0 discriminator 169
 1037 061c 02F58062 		add	r2, r2, #1024
 1038 0620 9342     		cmp	r3, r2
 1039 0622 26D0     		beq	.L154
 211:/Users/Qianqian/Desktop/MPS/stm32lib/Drivers/STM32F7xx_HAL_Driver/Src/stm32f7xx_hal_dma_ex.c ****     __HAL_DMA_CLEAR_FLAG (hdma, __HAL_DMA_GET_TE_FLAG_INDEX(hdma));
 1040              		.loc 1 211 0 discriminator 171
 1041 0624 A2F56872 		sub	r2, r2, #928
 1042 0628 9342     		cmp	r3, r2
 1043 062a 25D0     		beq	.L155
 211:/Users/Qianqian/Desktop/MPS/stm32lib/Drivers/STM32F7xx_HAL_Driver/Src/stm32f7xx_hal_dma_ex.c ****     __HAL_DMA_CLEAR_FLAG (hdma, __HAL_DMA_GET_TE_FLAG_INDEX(hdma));
 1044              		.loc 1 211 0 discriminator 173
 1045 062c 02F58062 		add	r2, r2, #1024
 1046 0630 9342     		cmp	r3, r2
 1047 0632 02D0     		beq	.L312
 211:/Users/Qianqian/Desktop/MPS/stm32lib/Drivers/STM32F7xx_HAL_Driver/Src/stm32f7xx_hal_dma_ex.c ****     __HAL_DMA_CLEAR_FLAG (hdma, __HAL_DMA_GET_TE_FLAG_INDEX(hdma));
 1048              		.loc 1 211 0
 1049 0634 4FF08063 		mov	r3, #67108864
 1050 0638 03E0     		b	.L33
 1051              	.L312:
 1052 063a 4FF48013 		mov	r3, #1048576
 1053 063e 00E0     		b	.L33
 1054              	.L145:
 1055 0640 1023     		movs	r3, #16
 1056              	.L33:
 211:/Users/Qianqian/Desktop/MPS/stm32lib/Drivers/STM32F7xx_HAL_Driver/Src/stm32f7xx_hal_dma_ex.c ****     __HAL_DMA_CLEAR_FLAG (hdma, __HAL_DMA_GET_TE_FLAG_INDEX(hdma));
 1057              		.loc 1 211 0 discriminator 200
 1058 0642 144A     		ldr	r2, .L327+16
 1059 0644 9360     		str	r3, [r2, #8]
 1060 0646 B9E6     		b	.L28
 1061              	.L146:
 211:/Users/Qianqian/Desktop/MPS/stm32lib/Drivers/STM32F7xx_HAL_Driver/Src/stm32f7xx_hal_dma_ex.c ****     __HAL_DMA_CLEAR_FLAG (hdma, __HAL_DMA_GET_TE_FLAG_INDEX(hdma));
 1062              		.loc 1 211 0
 1063 0648 1023     		movs	r3, #16
 1064 064a FAE7     		b	.L33
 1065              	.L147:
 1066 064c 1023     		movs	r3, #16
 1067 064e F8E7     		b	.L33
 1068              	.L148:
 1069 0650 1023     		movs	r3, #16
 1070 0652 F6E7     		b	.L33
 1071              	.L149:
 1072 0654 4FF48063 		mov	r3, #1024
 1073 0658 F3E7     		b	.L33
 1074              	.L150:
 1075 065a 4FF48063 		mov	r3, #1024
 1076 065e F0E7     		b	.L33
 1077              	.L151:
 1078 0660 4FF48063 		mov	r3, #1024
 1079 0664 EDE7     		b	.L33
 1080              	.L152:
 1081 0666 4FF48063 		mov	r3, #1024
 1082 066a EAE7     		b	.L33
 1083              	.L153:
 1084 066c 4FF48013 		mov	r3, #1048576
 1085 0670 E7E7     		b	.L33
 1086              	.L154:
 1087 0672 4FF48013 		mov	r3, #1048576
 1088 0676 E4E7     		b	.L33
 1089              	.L155:
 1090 0678 4FF48013 		mov	r3, #1048576
 1091 067c E1E7     		b	.L33
 1092              	.L309:
 212:/Users/Qianqian/Desktop/MPS/stm32lib/Drivers/STM32F7xx_HAL_Driver/Src/stm32f7xx_hal_dma_ex.c ****     __HAL_DMA_CLEAR_FLAG (hdma, __HAL_DMA_GET_DME_FLAG_INDEX(hdma));
 1093              		.loc 1 212 0 is_stmt 1
 1094 067e 4FF40022 		mov	r2, #524288
 1095 0682 0CE0     		b	.L35
 1096              	.L328:
 1097              		.align	2
 1098              	.L327:
 1099 0684 00640240 		.word	1073898496
 1100 0688 58640240 		.word	1073898584
 1101 068c B8600240 		.word	1073897656
 1102 0690 58600240 		.word	1073897560
 1103 0694 00600240 		.word	1073897472
 1104 0698 10600240 		.word	1073897488
 1105              	.L157:
 1106 069c 0822     		movs	r2, #8
 1107              	.L35:
 212:/Users/Qianqian/Desktop/MPS/stm32lib/Drivers/STM32F7xx_HAL_Driver/Src/stm32f7xx_hal_dma_ex.c ****     __HAL_DMA_CLEAR_FLAG (hdma, __HAL_DMA_GET_DME_FLAG_INDEX(hdma));
 1108              		.loc 1 212 0 is_stmt 0 discriminator 50
 1109 069e B34B     		ldr	r3, .L329
 1110 06a0 DA60     		str	r2, [r3, #12]
 1111              	.L36:
 213:/Users/Qianqian/Desktop/MPS/stm32lib/Drivers/STM32F7xx_HAL_Driver/Src/stm32f7xx_hal_dma_ex.c ****     __HAL_DMA_CLEAR_FLAG (hdma, __HAL_DMA_GET_FE_FLAG_INDEX(hdma));
 1112              		.loc 1 213 0 is_stmt 1
 1113 06a2 2368     		ldr	r3, [r4]
 1114 06a4 B24A     		ldr	r2, .L329+4
 1115 06a6 9342     		cmp	r3, r2
 1116 06a8 40F2CE81 		bls	.L42
 213:/Users/Qianqian/Desktop/MPS/stm32lib/Drivers/STM32F7xx_HAL_Driver/Src/stm32f7xx_hal_dma_ex.c ****     __HAL_DMA_CLEAR_FLAG (hdma, __HAL_DMA_GET_FE_FLAG_INDEX(hdma));
 1117              		.loc 1 213 0 is_stmt 0 discriminator 1
 1118 06ac A2F58962 		sub	r2, r2, #1096
 1119 06b0 9342     		cmp	r3, r2
 1120 06b2 00F06781 		beq	.L205
 213:/Users/Qianqian/Desktop/MPS/stm32lib/Drivers/STM32F7xx_HAL_Driver/Src/stm32f7xx_hal_dma_ex.c ****     __HAL_DMA_CLEAR_FLAG (hdma, __HAL_DMA_GET_FE_FLAG_INDEX(hdma));
 1121              		.loc 1 213 0 discriminator 3
 1122 06b6 02F58062 		add	r2, r2, #1024
 1123 06ba 9342     		cmp	r3, r2
 1124 06bc 00F0A981 		beq	.L206
 213:/Users/Qianqian/Desktop/MPS/stm32lib/Drivers/STM32F7xx_HAL_Driver/Src/stm32f7xx_hal_dma_ex.c ****     __HAL_DMA_CLEAR_FLAG (hdma, __HAL_DMA_GET_FE_FLAG_INDEX(hdma));
 1125              		.loc 1 213 0 discriminator 5
 1126 06c0 A2F56872 		sub	r2, r2, #928
 1127 06c4 9342     		cmp	r3, r2
 1128 06c6 00F0A681 		beq	.L207
 213:/Users/Qianqian/Desktop/MPS/stm32lib/Drivers/STM32F7xx_HAL_Driver/Src/stm32f7xx_hal_dma_ex.c ****     __HAL_DMA_CLEAR_FLAG (hdma, __HAL_DMA_GET_FE_FLAG_INDEX(hdma));
 1129              		.loc 1 213 0 discriminator 7
 1130 06ca 02F58062 		add	r2, r2, #1024
 1131 06ce 9342     		cmp	r3, r2
 1132 06d0 00F0A381 		beq	.L208
 213:/Users/Qianqian/Desktop/MPS/stm32lib/Drivers/STM32F7xx_HAL_Driver/Src/stm32f7xx_hal_dma_ex.c ****     __HAL_DMA_CLEAR_FLAG (hdma, __HAL_DMA_GET_FE_FLAG_INDEX(hdma));
 1133              		.loc 1 213 0 discriminator 9
 1134 06d4 A2F58962 		sub	r2, r2, #1096
 1135 06d8 9342     		cmp	r3, r2
 1136 06da 00F0A081 		beq	.L209
 213:/Users/Qianqian/Desktop/MPS/stm32lib/Drivers/STM32F7xx_HAL_Driver/Src/stm32f7xx_hal_dma_ex.c ****     __HAL_DMA_CLEAR_FLAG (hdma, __HAL_DMA_GET_FE_FLAG_INDEX(hdma));
 1137              		.loc 1 213 0 discriminator 11
 1138 06de 02F58062 		add	r2, r2, #1024
 1139 06e2 9342     		cmp	r3, r2
 1140 06e4 00F09E81 		beq	.L210
 213:/Users/Qianqian/Desktop/MPS/stm32lib/Drivers/STM32F7xx_HAL_Driver/Src/stm32f7xx_hal_dma_ex.c ****     __HAL_DMA_CLEAR_FLAG (hdma, __HAL_DMA_GET_FE_FLAG_INDEX(hdma));
 1141              		.loc 1 213 0 discriminator 13
 1142 06e8 A2F56872 		sub	r2, r2, #928
 1143 06ec 9342     		cmp	r3, r2
 1144 06ee 00F09C81 		beq	.L211
 213:/Users/Qianqian/Desktop/MPS/stm32lib/Drivers/STM32F7xx_HAL_Driver/Src/stm32f7xx_hal_dma_ex.c ****     __HAL_DMA_CLEAR_FLAG (hdma, __HAL_DMA_GET_FE_FLAG_INDEX(hdma));
 1145              		.loc 1 213 0 discriminator 15
 1146 06f2 02F58062 		add	r2, r2, #1024
 1147 06f6 9342     		cmp	r3, r2
 1148 06f8 00F09A81 		beq	.L212
 213:/Users/Qianqian/Desktop/MPS/stm32lib/Drivers/STM32F7xx_HAL_Driver/Src/stm32f7xx_hal_dma_ex.c ****     __HAL_DMA_CLEAR_FLAG (hdma, __HAL_DMA_GET_FE_FLAG_INDEX(hdma));
 1149              		.loc 1 213 0 discriminator 17
 1150 06fc A2F58962 		sub	r2, r2, #1096
 1151 0700 9342     		cmp	r3, r2
 1152 0702 00F09881 		beq	.L213
 213:/Users/Qianqian/Desktop/MPS/stm32lib/Drivers/STM32F7xx_HAL_Driver/Src/stm32f7xx_hal_dma_ex.c ****     __HAL_DMA_CLEAR_FLAG (hdma, __HAL_DMA_GET_FE_FLAG_INDEX(hdma));
 1153              		.loc 1 213 0 discriminator 19
 1154 0706 02F58062 		add	r2, r2, #1024
 1155 070a 9342     		cmp	r3, r2
 1156 070c 00F09681 		beq	.L214
 213:/Users/Qianqian/Desktop/MPS/stm32lib/Drivers/STM32F7xx_HAL_Driver/Src/stm32f7xx_hal_dma_ex.c ****     __HAL_DMA_CLEAR_FLAG (hdma, __HAL_DMA_GET_FE_FLAG_INDEX(hdma));
 1157              		.loc 1 213 0 discriminator 21
 1158 0710 A2F56872 		sub	r2, r2, #928
 1159 0714 9342     		cmp	r3, r2
 1160 0716 00F09481 		beq	.L215
 213:/Users/Qianqian/Desktop/MPS/stm32lib/Drivers/STM32F7xx_HAL_Driver/Src/stm32f7xx_hal_dma_ex.c ****     __HAL_DMA_CLEAR_FLAG (hdma, __HAL_DMA_GET_FE_FLAG_INDEX(hdma));
 1161              		.loc 1 213 0 discriminator 23
 1162 071a 02F58062 		add	r2, r2, #1024
 1163 071e 9342     		cmp	r3, r2
 1164 0720 00F02081 		beq	.L313
 213:/Users/Qianqian/Desktop/MPS/stm32lib/Drivers/STM32F7xx_HAL_Driver/Src/stm32f7xx_hal_dma_ex.c ****     __HAL_DMA_CLEAR_FLAG (hdma, __HAL_DMA_GET_FE_FLAG_INDEX(hdma));
 1165              		.loc 1 213 0
 1166 0724 4FF08072 		mov	r2, #16777216
 1167 0728 2DE1     		b	.L43
 1168              	.L158:
 212:/Users/Qianqian/Desktop/MPS/stm32lib/Drivers/STM32F7xx_HAL_Driver/Src/stm32f7xx_hal_dma_ex.c ****     __HAL_DMA_CLEAR_FLAG (hdma, __HAL_DMA_GET_DME_FLAG_INDEX(hdma));
 1169              		.loc 1 212 0 is_stmt 1
 1170 072a 0822     		movs	r2, #8
 1171 072c B7E7     		b	.L35
 1172              	.L159:
 1173 072e 0822     		movs	r2, #8
 1174 0730 B5E7     		b	.L35
 1175              	.L160:
 1176 0732 0822     		movs	r2, #8
 1177 0734 B3E7     		b	.L35
 1178              	.L161:
 1179 0736 4FF40072 		mov	r2, #512
 1180 073a B0E7     		b	.L35
 1181              	.L162:
 1182 073c 4FF40072 		mov	r2, #512
 1183 0740 ADE7     		b	.L35
 1184              	.L163:
 1185 0742 4FF40072 		mov	r2, #512
 1186 0746 AAE7     		b	.L35
 1187              	.L164:
 1188 0748 4FF40072 		mov	r2, #512
 1189 074c A7E7     		b	.L35
 1190              	.L165:
 1191 074e 4FF40022 		mov	r2, #524288
 1192 0752 A4E7     		b	.L35
 1193              	.L166:
 1194 0754 4FF40022 		mov	r2, #524288
 1195 0758 A1E7     		b	.L35
 1196              	.L167:
 1197 075a 4FF40022 		mov	r2, #524288
 1198 075e 9EE7     		b	.L35
 1199              	.L34:
 212:/Users/Qianqian/Desktop/MPS/stm32lib/Drivers/STM32F7xx_HAL_Driver/Src/stm32f7xx_hal_dma_ex.c ****     __HAL_DMA_CLEAR_FLAG (hdma, __HAL_DMA_GET_DME_FLAG_INDEX(hdma));
 1200              		.loc 1 212 0 is_stmt 0 discriminator 2
 1201 0760 844A     		ldr	r2, .L329+8
 1202 0762 9342     		cmp	r3, r2
 1203 0764 53D9     		bls	.L37
 212:/Users/Qianqian/Desktop/MPS/stm32lib/Drivers/STM32F7xx_HAL_Driver/Src/stm32f7xx_hal_dma_ex.c ****     __HAL_DMA_CLEAR_FLAG (hdma, __HAL_DMA_GET_DME_FLAG_INDEX(hdma));
 1204              		.loc 1 212 0 discriminator 51
 1205 0766 A83A     		subs	r2, r2, #168
 1206 0768 9342     		cmp	r3, r2
 1207 076a 31D0     		beq	.L169
 212:/Users/Qianqian/Desktop/MPS/stm32lib/Drivers/STM32F7xx_HAL_Driver/Src/stm32f7xx_hal_dma_ex.c ****     __HAL_DMA_CLEAR_FLAG (hdma, __HAL_DMA_GET_DME_FLAG_INDEX(hdma));
 1208              		.loc 1 212 0 discriminator 53
 1209 076c 02F58062 		add	r2, r2, #1024
 1210 0770 9342     		cmp	r3, r2
 1211 0772 31D0     		beq	.L170
 212:/Users/Qianqian/Desktop/MPS/stm32lib/Drivers/STM32F7xx_HAL_Driver/Src/stm32f7xx_hal_dma_ex.c ****     __HAL_DMA_CLEAR_FLAG (hdma, __HAL_DMA_GET_DME_FLAG_INDEX(hdma));
 1212              		.loc 1 212 0 discriminator 55
 1213 0774 A2F56872 		sub	r2, r2, #928
 1214 0778 9342     		cmp	r3, r2
 1215 077a 2FD0     		beq	.L171
 212:/Users/Qianqian/Desktop/MPS/stm32lib/Drivers/STM32F7xx_HAL_Driver/Src/stm32f7xx_hal_dma_ex.c ****     __HAL_DMA_CLEAR_FLAG (hdma, __HAL_DMA_GET_DME_FLAG_INDEX(hdma));
 1216              		.loc 1 212 0 discriminator 57
 1217 077c 02F58062 		add	r2, r2, #1024
 1218 0780 9342     		cmp	r3, r2
 1219 0782 2DD0     		beq	.L172
 212:/Users/Qianqian/Desktop/MPS/stm32lib/Drivers/STM32F7xx_HAL_Driver/Src/stm32f7xx_hal_dma_ex.c ****     __HAL_DMA_CLEAR_FLAG (hdma, __HAL_DMA_GET_DME_FLAG_INDEX(hdma));
 1220              		.loc 1 212 0 discriminator 59
 1221 0784 A2F58962 		sub	r2, r2, #1096
 1222 0788 9342     		cmp	r3, r2
 1223 078a 2BD0     		beq	.L173
 212:/Users/Qianqian/Desktop/MPS/stm32lib/Drivers/STM32F7xx_HAL_Driver/Src/stm32f7xx_hal_dma_ex.c ****     __HAL_DMA_CLEAR_FLAG (hdma, __HAL_DMA_GET_DME_FLAG_INDEX(hdma));
 1224              		.loc 1 212 0 discriminator 61
 1225 078c 02F58062 		add	r2, r2, #1024
 1226 0790 9342     		cmp	r3, r2
 1227 0792 2AD0     		beq	.L174
 212:/Users/Qianqian/Desktop/MPS/stm32lib/Drivers/STM32F7xx_HAL_Driver/Src/stm32f7xx_hal_dma_ex.c ****     __HAL_DMA_CLEAR_FLAG (hdma, __HAL_DMA_GET_DME_FLAG_INDEX(hdma));
 1228              		.loc 1 212 0 discriminator 63
 1229 0794 A2F56872 		sub	r2, r2, #928
 1230 0798 9342     		cmp	r3, r2
 1231 079a 29D0     		beq	.L175
 212:/Users/Qianqian/Desktop/MPS/stm32lib/Drivers/STM32F7xx_HAL_Driver/Src/stm32f7xx_hal_dma_ex.c ****     __HAL_DMA_CLEAR_FLAG (hdma, __HAL_DMA_GET_DME_FLAG_INDEX(hdma));
 1232              		.loc 1 212 0 discriminator 65
 1233 079c 02F58062 		add	r2, r2, #1024
 1234 07a0 9342     		cmp	r3, r2
 1235 07a2 28D0     		beq	.L176
 212:/Users/Qianqian/Desktop/MPS/stm32lib/Drivers/STM32F7xx_HAL_Driver/Src/stm32f7xx_hal_dma_ex.c ****     __HAL_DMA_CLEAR_FLAG (hdma, __HAL_DMA_GET_DME_FLAG_INDEX(hdma));
 1236              		.loc 1 212 0 discriminator 67
 1237 07a4 A2F58962 		sub	r2, r2, #1096
 1238 07a8 9342     		cmp	r3, r2
 1239 07aa 27D0     		beq	.L177
 212:/Users/Qianqian/Desktop/MPS/stm32lib/Drivers/STM32F7xx_HAL_Driver/Src/stm32f7xx_hal_dma_ex.c ****     __HAL_DMA_CLEAR_FLAG (hdma, __HAL_DMA_GET_DME_FLAG_INDEX(hdma));
 1240              		.loc 1 212 0 discriminator 69
 1241 07ac 02F58062 		add	r2, r2, #1024
 1242 07b0 9342     		cmp	r3, r2
 1243 07b2 26D0     		beq	.L178
 212:/Users/Qianqian/Desktop/MPS/stm32lib/Drivers/STM32F7xx_HAL_Driver/Src/stm32f7xx_hal_dma_ex.c ****     __HAL_DMA_CLEAR_FLAG (hdma, __HAL_DMA_GET_DME_FLAG_INDEX(hdma));
 1244              		.loc 1 212 0 discriminator 71
 1245 07b4 A2F56872 		sub	r2, r2, #928
 1246 07b8 9342     		cmp	r3, r2
 1247 07ba 25D0     		beq	.L179
 212:/Users/Qianqian/Desktop/MPS/stm32lib/Drivers/STM32F7xx_HAL_Driver/Src/stm32f7xx_hal_dma_ex.c ****     __HAL_DMA_CLEAR_FLAG (hdma, __HAL_DMA_GET_DME_FLAG_INDEX(hdma));
 1248              		.loc 1 212 0 discriminator 73
 1249 07bc 02F58062 		add	r2, r2, #1024
 1250 07c0 9342     		cmp	r3, r2
 1251 07c2 02D0     		beq	.L314
 212:/Users/Qianqian/Desktop/MPS/stm32lib/Drivers/STM32F7xx_HAL_Driver/Src/stm32f7xx_hal_dma_ex.c ****     __HAL_DMA_CLEAR_FLAG (hdma, __HAL_DMA_GET_DME_FLAG_INDEX(hdma));
 1252              		.loc 1 212 0
 1253 07c4 4FF00072 		mov	r2, #33554432
 1254 07c8 03E0     		b	.L38
 1255              	.L314:
 1256 07ca 4FF40022 		mov	r2, #524288
 1257 07ce 00E0     		b	.L38
 1258              	.L169:
 1259 07d0 0822     		movs	r2, #8
 1260              	.L38:
 212:/Users/Qianqian/Desktop/MPS/stm32lib/Drivers/STM32F7xx_HAL_Driver/Src/stm32f7xx_hal_dma_ex.c ****     __HAL_DMA_CLEAR_FLAG (hdma, __HAL_DMA_GET_DME_FLAG_INDEX(hdma));
 1261              		.loc 1 212 0 discriminator 100
 1262 07d2 664B     		ldr	r3, .L329
 1263 07d4 9A60     		str	r2, [r3, #8]
 1264 07d6 64E7     		b	.L36
 1265              	.L170:
 212:/Users/Qianqian/Desktop/MPS/stm32lib/Drivers/STM32F7xx_HAL_Driver/Src/stm32f7xx_hal_dma_ex.c ****     __HAL_DMA_CLEAR_FLAG (hdma, __HAL_DMA_GET_DME_FLAG_INDEX(hdma));
 1266              		.loc 1 212 0
 1267 07d8 0822     		movs	r2, #8
 1268 07da FAE7     		b	.L38
 1269              	.L171:
 1270 07dc 0822     		movs	r2, #8
 1271 07de F8E7     		b	.L38
 1272              	.L172:
 1273 07e0 0822     		movs	r2, #8
 1274 07e2 F6E7     		b	.L38
 1275              	.L173:
 1276 07e4 4FF40072 		mov	r2, #512
 1277 07e8 F3E7     		b	.L38
 1278              	.L174:
 1279 07ea 4FF40072 		mov	r2, #512
 1280 07ee F0E7     		b	.L38
 1281              	.L175:
 1282 07f0 4FF40072 		mov	r2, #512
 1283 07f4 EDE7     		b	.L38
 1284              	.L176:
 1285 07f6 4FF40072 		mov	r2, #512
 1286 07fa EAE7     		b	.L38
 1287              	.L177:
 1288 07fc 4FF40022 		mov	r2, #524288
 1289 0800 E7E7     		b	.L38
 1290              	.L178:
 1291 0802 4FF40022 		mov	r2, #524288
 1292 0806 E4E7     		b	.L38
 1293              	.L179:
 1294 0808 4FF40022 		mov	r2, #524288
 1295 080c E1E7     		b	.L38
 1296              	.L37:
 212:/Users/Qianqian/Desktop/MPS/stm32lib/Drivers/STM32F7xx_HAL_Driver/Src/stm32f7xx_hal_dma_ex.c ****     __HAL_DMA_CLEAR_FLAG (hdma, __HAL_DMA_GET_DME_FLAG_INDEX(hdma));
 1297              		.loc 1 212 0 discriminator 52
 1298 080e 5A4A     		ldr	r2, .L329+12
 1299 0810 9342     		cmp	r3, r2
 1300 0812 53D9     		bls	.L39
 212:/Users/Qianqian/Desktop/MPS/stm32lib/Drivers/STM32F7xx_HAL_Driver/Src/stm32f7xx_hal_dma_ex.c ****     __HAL_DMA_CLEAR_FLAG (hdma, __HAL_DMA_GET_DME_FLAG_INDEX(hdma));
 1301              		.loc 1 212 0 discriminator 102
 1302 0814 483A     		subs	r2, r2, #72
 1303 0816 9342     		cmp	r3, r2
 1304 0818 31D0     		beq	.L181
 212:/Users/Qianqian/Desktop/MPS/stm32lib/Drivers/STM32F7xx_HAL_Driver/Src/stm32f7xx_hal_dma_ex.c ****     __HAL_DMA_CLEAR_FLAG (hdma, __HAL_DMA_GET_DME_FLAG_INDEX(hdma));
 1305              		.loc 1 212 0 discriminator 104
 1306 081a 02F58062 		add	r2, r2, #1024
 1307 081e 9342     		cmp	r3, r2
 1308 0820 31D0     		beq	.L182
 212:/Users/Qianqian/Desktop/MPS/stm32lib/Drivers/STM32F7xx_HAL_Driver/Src/stm32f7xx_hal_dma_ex.c ****     __HAL_DMA_CLEAR_FLAG (hdma, __HAL_DMA_GET_DME_FLAG_INDEX(hdma));
 1309              		.loc 1 212 0 discriminator 106
 1310 0822 A2F56872 		sub	r2, r2, #928
 1311 0826 9342     		cmp	r3, r2
 1312 0828 2FD0     		beq	.L183
 212:/Users/Qianqian/Desktop/MPS/stm32lib/Drivers/STM32F7xx_HAL_Driver/Src/stm32f7xx_hal_dma_ex.c ****     __HAL_DMA_CLEAR_FLAG (hdma, __HAL_DMA_GET_DME_FLAG_INDEX(hdma));
 1313              		.loc 1 212 0 discriminator 108
 1314 082a 02F58062 		add	r2, r2, #1024
 1315 082e 9342     		cmp	r3, r2
 1316 0830 2DD0     		beq	.L184
 212:/Users/Qianqian/Desktop/MPS/stm32lib/Drivers/STM32F7xx_HAL_Driver/Src/stm32f7xx_hal_dma_ex.c ****     __HAL_DMA_CLEAR_FLAG (hdma, __HAL_DMA_GET_DME_FLAG_INDEX(hdma));
 1317              		.loc 1 212 0 discriminator 110
 1318 0832 A2F58962 		sub	r2, r2, #1096
 1319 0836 9342     		cmp	r3, r2
 1320 0838 2BD0     		beq	.L185
 212:/Users/Qianqian/Desktop/MPS/stm32lib/Drivers/STM32F7xx_HAL_Driver/Src/stm32f7xx_hal_dma_ex.c ****     __HAL_DMA_CLEAR_FLAG (hdma, __HAL_DMA_GET_DME_FLAG_INDEX(hdma));
 1321              		.loc 1 212 0 discriminator 112
 1322 083a 02F58062 		add	r2, r2, #1024
 1323 083e 9342     		cmp	r3, r2
 1324 0840 2AD0     		beq	.L186
 212:/Users/Qianqian/Desktop/MPS/stm32lib/Drivers/STM32F7xx_HAL_Driver/Src/stm32f7xx_hal_dma_ex.c ****     __HAL_DMA_CLEAR_FLAG (hdma, __HAL_DMA_GET_DME_FLAG_INDEX(hdma));
 1325              		.loc 1 212 0 discriminator 114
 1326 0842 A2F56872 		sub	r2, r2, #928
 1327 0846 9342     		cmp	r3, r2
 1328 0848 29D0     		beq	.L187
 212:/Users/Qianqian/Desktop/MPS/stm32lib/Drivers/STM32F7xx_HAL_Driver/Src/stm32f7xx_hal_dma_ex.c ****     __HAL_DMA_CLEAR_FLAG (hdma, __HAL_DMA_GET_DME_FLAG_INDEX(hdma));
 1329              		.loc 1 212 0 discriminator 116
 1330 084a 02F58062 		add	r2, r2, #1024
 1331 084e 9342     		cmp	r3, r2
 1332 0850 28D0     		beq	.L188
 212:/Users/Qianqian/Desktop/MPS/stm32lib/Drivers/STM32F7xx_HAL_Driver/Src/stm32f7xx_hal_dma_ex.c ****     __HAL_DMA_CLEAR_FLAG (hdma, __HAL_DMA_GET_DME_FLAG_INDEX(hdma));
 1333              		.loc 1 212 0 discriminator 118
 1334 0852 A2F58962 		sub	r2, r2, #1096
 1335 0856 9342     		cmp	r3, r2
 1336 0858 27D0     		beq	.L189
 212:/Users/Qianqian/Desktop/MPS/stm32lib/Drivers/STM32F7xx_HAL_Driver/Src/stm32f7xx_hal_dma_ex.c ****     __HAL_DMA_CLEAR_FLAG (hdma, __HAL_DMA_GET_DME_FLAG_INDEX(hdma));
 1337              		.loc 1 212 0 discriminator 120
 1338 085a 02F58062 		add	r2, r2, #1024
 1339 085e 9342     		cmp	r3, r2
 1340 0860 26D0     		beq	.L190
 212:/Users/Qianqian/Desktop/MPS/stm32lib/Drivers/STM32F7xx_HAL_Driver/Src/stm32f7xx_hal_dma_ex.c ****     __HAL_DMA_CLEAR_FLAG (hdma, __HAL_DMA_GET_DME_FLAG_INDEX(hdma));
 1341              		.loc 1 212 0 discriminator 122
 1342 0862 A2F56872 		sub	r2, r2, #928
 1343 0866 9342     		cmp	r3, r2
 1344 0868 25D0     		beq	.L191
 212:/Users/Qianqian/Desktop/MPS/stm32lib/Drivers/STM32F7xx_HAL_Driver/Src/stm32f7xx_hal_dma_ex.c ****     __HAL_DMA_CLEAR_FLAG (hdma, __HAL_DMA_GET_DME_FLAG_INDEX(hdma));
 1345              		.loc 1 212 0 discriminator 124
 1346 086a 02F58062 		add	r2, r2, #1024
 1347 086e 9342     		cmp	r3, r2
 1348 0870 02D0     		beq	.L315
 212:/Users/Qianqian/Desktop/MPS/stm32lib/Drivers/STM32F7xx_HAL_Driver/Src/stm32f7xx_hal_dma_ex.c ****     __HAL_DMA_CLEAR_FLAG (hdma, __HAL_DMA_GET_DME_FLAG_INDEX(hdma));
 1349              		.loc 1 212 0
 1350 0872 4FF00073 		mov	r3, #33554432
 1351 0876 03E0     		b	.L40
 1352              	.L315:
 1353 0878 4FF40023 		mov	r3, #524288
 1354 087c 00E0     		b	.L40
 1355              	.L181:
 1356 087e 0823     		movs	r3, #8
 1357              	.L40:
 212:/Users/Qianqian/Desktop/MPS/stm32lib/Drivers/STM32F7xx_HAL_Driver/Src/stm32f7xx_hal_dma_ex.c ****     __HAL_DMA_CLEAR_FLAG (hdma, __HAL_DMA_GET_DME_FLAG_INDEX(hdma));
 1358              		.loc 1 212 0 discriminator 151
 1359 0880 3E4A     		ldr	r2, .L329+16
 1360 0882 D360     		str	r3, [r2, #12]
 1361 0884 0DE7     		b	.L36
 1362              	.L182:
 212:/Users/Qianqian/Desktop/MPS/stm32lib/Drivers/STM32F7xx_HAL_Driver/Src/stm32f7xx_hal_dma_ex.c ****     __HAL_DMA_CLEAR_FLAG (hdma, __HAL_DMA_GET_DME_FLAG_INDEX(hdma));
 1363              		.loc 1 212 0
 1364 0886 0823     		movs	r3, #8
 1365 0888 FAE7     		b	.L40
 1366              	.L183:
 1367 088a 0823     		movs	r3, #8
 1368 088c F8E7     		b	.L40
 1369              	.L184:
 1370 088e 0823     		movs	r3, #8
 1371 0890 F6E7     		b	.L40
 1372              	.L185:
 1373 0892 4FF40073 		mov	r3, #512
 1374 0896 F3E7     		b	.L40
 1375              	.L186:
 1376 0898 4FF40073 		mov	r3, #512
 1377 089c F0E7     		b	.L40
 1378              	.L187:
 1379 089e 4FF40073 		mov	r3, #512
 1380 08a2 EDE7     		b	.L40
 1381              	.L188:
 1382 08a4 4FF40073 		mov	r3, #512
 1383 08a8 EAE7     		b	.L40
 1384              	.L189:
 1385 08aa 4FF40023 		mov	r3, #524288
 1386 08ae E7E7     		b	.L40
 1387              	.L190:
 1388 08b0 4FF40023 		mov	r3, #524288
 1389 08b4 E4E7     		b	.L40
 1390              	.L191:
 1391 08b6 4FF40023 		mov	r3, #524288
 1392 08ba E1E7     		b	.L40
 1393              	.L39:
 212:/Users/Qianqian/Desktop/MPS/stm32lib/Drivers/STM32F7xx_HAL_Driver/Src/stm32f7xx_hal_dma_ex.c ****     __HAL_DMA_CLEAR_FLAG (hdma, __HAL_DMA_GET_DME_FLAG_INDEX(hdma));
 1394              		.loc 1 212 0 discriminator 103
 1395 08bc 304A     		ldr	r2, .L329+20
 1396 08be 9342     		cmp	r3, r2
 1397 08c0 31D0     		beq	.L193
 212:/Users/Qianqian/Desktop/MPS/stm32lib/Drivers/STM32F7xx_HAL_Driver/Src/stm32f7xx_hal_dma_ex.c ****     __HAL_DMA_CLEAR_FLAG (hdma, __HAL_DMA_GET_DME_FLAG_INDEX(hdma));
 1398              		.loc 1 212 0 discriminator 153
 1399 08c2 02F58062 		add	r2, r2, #1024
 1400 08c6 9342     		cmp	r3, r2
 1401 08c8 31D0     		beq	.L194
 212:/Users/Qianqian/Desktop/MPS/stm32lib/Drivers/STM32F7xx_HAL_Driver/Src/stm32f7xx_hal_dma_ex.c ****     __HAL_DMA_CLEAR_FLAG (hdma, __HAL_DMA_GET_DME_FLAG_INDEX(hdma));
 1402              		.loc 1 212 0 discriminator 155
 1403 08ca A2F56872 		sub	r2, r2, #928
 1404 08ce 9342     		cmp	r3, r2
 1405 08d0 2FD0     		beq	.L195
 212:/Users/Qianqian/Desktop/MPS/stm32lib/Drivers/STM32F7xx_HAL_Driver/Src/stm32f7xx_hal_dma_ex.c ****     __HAL_DMA_CLEAR_FLAG (hdma, __HAL_DMA_GET_DME_FLAG_INDEX(hdma));
 1406              		.loc 1 212 0 discriminator 157
 1407 08d2 02F58062 		add	r2, r2, #1024
 1408 08d6 9342     		cmp	r3, r2
 1409 08d8 2DD0     		beq	.L196
 212:/Users/Qianqian/Desktop/MPS/stm32lib/Drivers/STM32F7xx_HAL_Driver/Src/stm32f7xx_hal_dma_ex.c ****     __HAL_DMA_CLEAR_FLAG (hdma, __HAL_DMA_GET_DME_FLAG_INDEX(hdma));
 1410              		.loc 1 212 0 discriminator 159
 1411 08da A2F58962 		sub	r2, r2, #1096
 1412 08de 9342     		cmp	r3, r2
 1413 08e0 2BD0     		beq	.L197
 212:/Users/Qianqian/Desktop/MPS/stm32lib/Drivers/STM32F7xx_HAL_Driver/Src/stm32f7xx_hal_dma_ex.c ****     __HAL_DMA_CLEAR_FLAG (hdma, __HAL_DMA_GET_DME_FLAG_INDEX(hdma));
 1414              		.loc 1 212 0 discriminator 161
 1415 08e2 02F58062 		add	r2, r2, #1024
 1416 08e6 9342     		cmp	r3, r2
 1417 08e8 2AD0     		beq	.L198
 212:/Users/Qianqian/Desktop/MPS/stm32lib/Drivers/STM32F7xx_HAL_Driver/Src/stm32f7xx_hal_dma_ex.c ****     __HAL_DMA_CLEAR_FLAG (hdma, __HAL_DMA_GET_DME_FLAG_INDEX(hdma));
 1418              		.loc 1 212 0 discriminator 163
 1419 08ea A2F56872 		sub	r2, r2, #928
 1420 08ee 9342     		cmp	r3, r2
 1421 08f0 29D0     		beq	.L199
 212:/Users/Qianqian/Desktop/MPS/stm32lib/Drivers/STM32F7xx_HAL_Driver/Src/stm32f7xx_hal_dma_ex.c ****     __HAL_DMA_CLEAR_FLAG (hdma, __HAL_DMA_GET_DME_FLAG_INDEX(hdma));
 1422              		.loc 1 212 0 discriminator 165
 1423 08f2 02F58062 		add	r2, r2, #1024
 1424 08f6 9342     		cmp	r3, r2
 1425 08f8 28D0     		beq	.L200
 212:/Users/Qianqian/Desktop/MPS/stm32lib/Drivers/STM32F7xx_HAL_Driver/Src/stm32f7xx_hal_dma_ex.c ****     __HAL_DMA_CLEAR_FLAG (hdma, __HAL_DMA_GET_DME_FLAG_INDEX(hdma));
 1426              		.loc 1 212 0 discriminator 167
 1427 08fa A2F58962 		sub	r2, r2, #1096
 1428 08fe 9342     		cmp	r3, r2
 1429 0900 27D0     		beq	.L201
 212:/Users/Qianqian/Desktop/MPS/stm32lib/Drivers/STM32F7xx_HAL_Driver/Src/stm32f7xx_hal_dma_ex.c ****     __HAL_DMA_CLEAR_FLAG (hdma, __HAL_DMA_GET_DME_FLAG_INDEX(hdma));
 1430              		.loc 1 212 0 discriminator 169
 1431 0902 02F58062 		add	r2, r2, #1024
 1432 0906 9342     		cmp	r3, r2
 1433 0908 26D0     		beq	.L202
 212:/Users/Qianqian/Desktop/MPS/stm32lib/Drivers/STM32F7xx_HAL_Driver/Src/stm32f7xx_hal_dma_ex.c ****     __HAL_DMA_CLEAR_FLAG (hdma, __HAL_DMA_GET_DME_FLAG_INDEX(hdma));
 1434              		.loc 1 212 0 discriminator 171
 1435 090a A2F56872 		sub	r2, r2, #928
 1436 090e 9342     		cmp	r3, r2
 1437 0910 25D0     		beq	.L203
 212:/Users/Qianqian/Desktop/MPS/stm32lib/Drivers/STM32F7xx_HAL_Driver/Src/stm32f7xx_hal_dma_ex.c ****     __HAL_DMA_CLEAR_FLAG (hdma, __HAL_DMA_GET_DME_FLAG_INDEX(hdma));
 1438              		.loc 1 212 0 discriminator 173
 1439 0912 02F58062 		add	r2, r2, #1024
 1440 0916 9342     		cmp	r3, r2
 1441 0918 02D0     		beq	.L316
 212:/Users/Qianqian/Desktop/MPS/stm32lib/Drivers/STM32F7xx_HAL_Driver/Src/stm32f7xx_hal_dma_ex.c ****     __HAL_DMA_CLEAR_FLAG (hdma, __HAL_DMA_GET_DME_FLAG_INDEX(hdma));
 1442              		.loc 1 212 0
 1443 091a 4FF00073 		mov	r3, #33554432
 1444 091e 03E0     		b	.L41
 1445              	.L316:
 1446 0920 4FF40023 		mov	r3, #524288
 1447 0924 00E0     		b	.L41
 1448              	.L193:
 1449 0926 0823     		movs	r3, #8
 1450              	.L41:
 212:/Users/Qianqian/Desktop/MPS/stm32lib/Drivers/STM32F7xx_HAL_Driver/Src/stm32f7xx_hal_dma_ex.c ****     __HAL_DMA_CLEAR_FLAG (hdma, __HAL_DMA_GET_DME_FLAG_INDEX(hdma));
 1451              		.loc 1 212 0 discriminator 200
 1452 0928 144A     		ldr	r2, .L329+16
 1453 092a 9360     		str	r3, [r2, #8]
 1454 092c B9E6     		b	.L36
 1455              	.L194:
 212:/Users/Qianqian/Desktop/MPS/stm32lib/Drivers/STM32F7xx_HAL_Driver/Src/stm32f7xx_hal_dma_ex.c ****     __HAL_DMA_CLEAR_FLAG (hdma, __HAL_DMA_GET_DME_FLAG_INDEX(hdma));
 1456              		.loc 1 212 0
 1457 092e 0823     		movs	r3, #8
 1458 0930 FAE7     		b	.L41
 1459              	.L195:
 1460 0932 0823     		movs	r3, #8
 1461 0934 F8E7     		b	.L41
 1462              	.L196:
 1463 0936 0823     		movs	r3, #8
 1464 0938 F6E7     		b	.L41
 1465              	.L197:
 1466 093a 4FF40073 		mov	r3, #512
 1467 093e F3E7     		b	.L41
 1468              	.L198:
 1469 0940 4FF40073 		mov	r3, #512
 1470 0944 F0E7     		b	.L41
 1471              	.L199:
 1472 0946 4FF40073 		mov	r3, #512
 1473 094a EDE7     		b	.L41
 1474              	.L200:
 1475 094c 4FF40073 		mov	r3, #512
 1476 0950 EAE7     		b	.L41
 1477              	.L201:
 1478 0952 4FF40023 		mov	r3, #524288
 1479 0956 E7E7     		b	.L41
 1480              	.L202:
 1481 0958 4FF40023 		mov	r3, #524288
 1482 095c E4E7     		b	.L41
 1483              	.L203:
 1484 095e 4FF40023 		mov	r3, #524288
 1485 0962 E1E7     		b	.L41
 1486              	.L313:
 213:/Users/Qianqian/Desktop/MPS/stm32lib/Drivers/STM32F7xx_HAL_Driver/Src/stm32f7xx_hal_dma_ex.c ****     __HAL_DMA_CLEAR_FLAG (hdma, __HAL_DMA_GET_FE_FLAG_INDEX(hdma));
 1487              		.loc 1 213 0 is_stmt 1
 1488 0964 4FF48022 		mov	r2, #262144
 1489 0968 0DE0     		b	.L43
 1490              	.L330:
 1491 096a 00BF     		.align	2
 1492              	.L329:
 1493 096c 00640240 		.word	1073898496
 1494 0970 58640240 		.word	1073898584
 1495 0974 B8600240 		.word	1073897656
 1496 0978 58600240 		.word	1073897560
 1497 097c 00600240 		.word	1073897472
 1498 0980 10600240 		.word	1073897488
 1499              	.L205:
 1500 0984 B34A     		ldr	r2, .L331
 1501              	.L43:
 213:/Users/Qianqian/Desktop/MPS/stm32lib/Drivers/STM32F7xx_HAL_Driver/Src/stm32f7xx_hal_dma_ex.c ****     __HAL_DMA_CLEAR_FLAG (hdma, __HAL_DMA_GET_FE_FLAG_INDEX(hdma));
 1502              		.loc 1 213 0 is_stmt 0 discriminator 50
 1503 0986 B44B     		ldr	r3, .L331+4
 1504 0988 DA60     		str	r2, [r3, #12]
 1505              	.L44:
 214:/Users/Qianqian/Desktop/MPS/stm32lib/Drivers/STM32F7xx_HAL_Driver/Src/stm32f7xx_hal_dma_ex.c ****     
 1506              		.loc 1 214 0 is_stmt 1
 1507 098a 2368     		ldr	r3, [r4]
 1508 098c B34A     		ldr	r2, .L331+8
 1509 098e 9342     		cmp	r3, r2
 1510 0990 40F2A381 		bls	.L50
 214:/Users/Qianqian/Desktop/MPS/stm32lib/Drivers/STM32F7xx_HAL_Driver/Src/stm32f7xx_hal_dma_ex.c ****     
 1511              		.loc 1 214 0 is_stmt 0 discriminator 1
 1512 0994 A2F58962 		sub	r2, r2, #1096
 1513 0998 9342     		cmp	r3, r2
 1514 099a 00F06981 		beq	.L253
 214:/Users/Qianqian/Desktop/MPS/stm32lib/Drivers/STM32F7xx_HAL_Driver/Src/stm32f7xx_hal_dma_ex.c ****     
 1515              		.loc 1 214 0 discriminator 3
 1516 099e 02F58062 		add	r2, r2, #1024
 1517 09a2 9342     		cmp	r3, r2
 1518 09a4 00F08281 		beq	.L254
 214:/Users/Qianqian/Desktop/MPS/stm32lib/Drivers/STM32F7xx_HAL_Driver/Src/stm32f7xx_hal_dma_ex.c ****     
 1519              		.loc 1 214 0 discriminator 5
 1520 09a8 A2F56872 		sub	r2, r2, #928
 1521 09ac 9342     		cmp	r3, r2
 1522 09ae 00F07F81 		beq	.L255
 214:/Users/Qianqian/Desktop/MPS/stm32lib/Drivers/STM32F7xx_HAL_Driver/Src/stm32f7xx_hal_dma_ex.c ****     
 1523              		.loc 1 214 0 discriminator 7
 1524 09b2 02F58062 		add	r2, r2, #1024
 1525 09b6 9342     		cmp	r3, r2
 1526 09b8 00F07C81 		beq	.L256
 214:/Users/Qianqian/Desktop/MPS/stm32lib/Drivers/STM32F7xx_HAL_Driver/Src/stm32f7xx_hal_dma_ex.c ****     
 1527              		.loc 1 214 0 discriminator 9
 1528 09bc A2F58962 		sub	r2, r2, #1096
 1529 09c0 9342     		cmp	r3, r2
 1530 09c2 00F07981 		beq	.L257
 214:/Users/Qianqian/Desktop/MPS/stm32lib/Drivers/STM32F7xx_HAL_Driver/Src/stm32f7xx_hal_dma_ex.c ****     
 1531              		.loc 1 214 0 discriminator 11
 1532 09c6 02F58062 		add	r2, r2, #1024
 1533 09ca 9342     		cmp	r3, r2
 1534 09cc 00F07681 		beq	.L258
 214:/Users/Qianqian/Desktop/MPS/stm32lib/Drivers/STM32F7xx_HAL_Driver/Src/stm32f7xx_hal_dma_ex.c ****     
 1535              		.loc 1 214 0 discriminator 13
 1536 09d0 A2F56872 		sub	r2, r2, #928
 1537 09d4 9342     		cmp	r3, r2
 1538 09d6 00F07381 		beq	.L259
 214:/Users/Qianqian/Desktop/MPS/stm32lib/Drivers/STM32F7xx_HAL_Driver/Src/stm32f7xx_hal_dma_ex.c ****     
 1539              		.loc 1 214 0 discriminator 15
 1540 09da 02F58062 		add	r2, r2, #1024
 1541 09de 9342     		cmp	r3, r2
 1542 09e0 00F07081 		beq	.L260
 214:/Users/Qianqian/Desktop/MPS/stm32lib/Drivers/STM32F7xx_HAL_Driver/Src/stm32f7xx_hal_dma_ex.c ****     
 1543              		.loc 1 214 0 discriminator 17
 1544 09e4 A2F58962 		sub	r2, r2, #1096
 1545 09e8 9342     		cmp	r3, r2
 1546 09ea 00F06D81 		beq	.L261
 214:/Users/Qianqian/Desktop/MPS/stm32lib/Drivers/STM32F7xx_HAL_Driver/Src/stm32f7xx_hal_dma_ex.c ****     
 1547              		.loc 1 214 0 discriminator 19
 1548 09ee 02F58062 		add	r2, r2, #1024
 1549 09f2 9342     		cmp	r3, r2
 1550 09f4 00F06B81 		beq	.L262
 214:/Users/Qianqian/Desktop/MPS/stm32lib/Drivers/STM32F7xx_HAL_Driver/Src/stm32f7xx_hal_dma_ex.c ****     
 1551              		.loc 1 214 0 discriminator 21
 1552 09f8 A2F56872 		sub	r2, r2, #928
 1553 09fc 9342     		cmp	r3, r2
 1554 09fe 00F06981 		beq	.L263
 214:/Users/Qianqian/Desktop/MPS/stm32lib/Drivers/STM32F7xx_HAL_Driver/Src/stm32f7xx_hal_dma_ex.c ****     
 1555              		.loc 1 214 0 discriminator 23
 1556 0a02 02F58062 		add	r2, r2, #1024
 1557 0a06 9342     		cmp	r3, r2
 1558 0a08 00F02081 		beq	.L317
 214:/Users/Qianqian/Desktop/MPS/stm32lib/Drivers/STM32F7xx_HAL_Driver/Src/stm32f7xx_hal_dma_ex.c ****     
 1559              		.loc 1 214 0
 1560 0a0c 4FF48002 		mov	r2, #4194304
 1561 0a10 2FE1     		b	.L51
 1562              	.L206:
 213:/Users/Qianqian/Desktop/MPS/stm32lib/Drivers/STM32F7xx_HAL_Driver/Src/stm32f7xx_hal_dma_ex.c ****     __HAL_DMA_CLEAR_FLAG (hdma, __HAL_DMA_GET_FE_FLAG_INDEX(hdma));
 1563              		.loc 1 213 0 is_stmt 1
 1564 0a12 904A     		ldr	r2, .L331
 1565 0a14 B7E7     		b	.L43
 1566              	.L207:
 1567 0a16 8F4A     		ldr	r2, .L331
 1568 0a18 B5E7     		b	.L43
 1569              	.L208:
 1570 0a1a 8E4A     		ldr	r2, .L331
 1571 0a1c B3E7     		b	.L43
 1572              	.L209:
 1573 0a1e 4FF48072 		mov	r2, #256
 1574 0a22 B0E7     		b	.L43
 1575              	.L210:
 1576 0a24 4FF48072 		mov	r2, #256
 1577 0a28 ADE7     		b	.L43
 1578              	.L211:
 1579 0a2a 4FF48072 		mov	r2, #256
 1580 0a2e AAE7     		b	.L43
 1581              	.L212:
 1582 0a30 4FF48072 		mov	r2, #256
 1583 0a34 A7E7     		b	.L43
 1584              	.L213:
 1585 0a36 4FF48022 		mov	r2, #262144
 1586 0a3a A4E7     		b	.L43
 1587              	.L214:
 1588 0a3c 4FF48022 		mov	r2, #262144
 1589 0a40 A1E7     		b	.L43
 1590              	.L215:
 1591 0a42 4FF48022 		mov	r2, #262144
 1592 0a46 9EE7     		b	.L43
 1593              	.L42:
 213:/Users/Qianqian/Desktop/MPS/stm32lib/Drivers/STM32F7xx_HAL_Driver/Src/stm32f7xx_hal_dma_ex.c ****     __HAL_DMA_CLEAR_FLAG (hdma, __HAL_DMA_GET_FE_FLAG_INDEX(hdma));
 1594              		.loc 1 213 0 is_stmt 0 discriminator 2
 1595 0a48 854A     		ldr	r2, .L331+12
 1596 0a4a 9342     		cmp	r3, r2
 1597 0a4c 53D9     		bls	.L45
 213:/Users/Qianqian/Desktop/MPS/stm32lib/Drivers/STM32F7xx_HAL_Driver/Src/stm32f7xx_hal_dma_ex.c ****     __HAL_DMA_CLEAR_FLAG (hdma, __HAL_DMA_GET_FE_FLAG_INDEX(hdma));
 1598              		.loc 1 213 0 discriminator 51
 1599 0a4e A83A     		subs	r2, r2, #168
 1600 0a50 9342     		cmp	r3, r2
 1601 0a52 31D0     		beq	.L217
 213:/Users/Qianqian/Desktop/MPS/stm32lib/Drivers/STM32F7xx_HAL_Driver/Src/stm32f7xx_hal_dma_ex.c ****     __HAL_DMA_CLEAR_FLAG (hdma, __HAL_DMA_GET_FE_FLAG_INDEX(hdma));
 1602              		.loc 1 213 0 discriminator 53
 1603 0a54 02F58062 		add	r2, r2, #1024
 1604 0a58 9342     		cmp	r3, r2
 1605 0a5a 31D0     		beq	.L218
 213:/Users/Qianqian/Desktop/MPS/stm32lib/Drivers/STM32F7xx_HAL_Driver/Src/stm32f7xx_hal_dma_ex.c ****     __HAL_DMA_CLEAR_FLAG (hdma, __HAL_DMA_GET_FE_FLAG_INDEX(hdma));
 1606              		.loc 1 213 0 discriminator 55
 1607 0a5c A2F56872 		sub	r2, r2, #928
 1608 0a60 9342     		cmp	r3, r2
 1609 0a62 2FD0     		beq	.L219
 213:/Users/Qianqian/Desktop/MPS/stm32lib/Drivers/STM32F7xx_HAL_Driver/Src/stm32f7xx_hal_dma_ex.c ****     __HAL_DMA_CLEAR_FLAG (hdma, __HAL_DMA_GET_FE_FLAG_INDEX(hdma));
 1610              		.loc 1 213 0 discriminator 57
 1611 0a64 02F58062 		add	r2, r2, #1024
 1612 0a68 9342     		cmp	r3, r2
 1613 0a6a 2DD0     		beq	.L220
 213:/Users/Qianqian/Desktop/MPS/stm32lib/Drivers/STM32F7xx_HAL_Driver/Src/stm32f7xx_hal_dma_ex.c ****     __HAL_DMA_CLEAR_FLAG (hdma, __HAL_DMA_GET_FE_FLAG_INDEX(hdma));
 1614              		.loc 1 213 0 discriminator 59
 1615 0a6c A2F58962 		sub	r2, r2, #1096
 1616 0a70 9342     		cmp	r3, r2
 1617 0a72 2BD0     		beq	.L221
 213:/Users/Qianqian/Desktop/MPS/stm32lib/Drivers/STM32F7xx_HAL_Driver/Src/stm32f7xx_hal_dma_ex.c ****     __HAL_DMA_CLEAR_FLAG (hdma, __HAL_DMA_GET_FE_FLAG_INDEX(hdma));
 1618              		.loc 1 213 0 discriminator 61
 1619 0a74 02F58062 		add	r2, r2, #1024
 1620 0a78 9342     		cmp	r3, r2
 1621 0a7a 2AD0     		beq	.L222
 213:/Users/Qianqian/Desktop/MPS/stm32lib/Drivers/STM32F7xx_HAL_Driver/Src/stm32f7xx_hal_dma_ex.c ****     __HAL_DMA_CLEAR_FLAG (hdma, __HAL_DMA_GET_FE_FLAG_INDEX(hdma));
 1622              		.loc 1 213 0 discriminator 63
 1623 0a7c A2F56872 		sub	r2, r2, #928
 1624 0a80 9342     		cmp	r3, r2
 1625 0a82 29D0     		beq	.L223
 213:/Users/Qianqian/Desktop/MPS/stm32lib/Drivers/STM32F7xx_HAL_Driver/Src/stm32f7xx_hal_dma_ex.c ****     __HAL_DMA_CLEAR_FLAG (hdma, __HAL_DMA_GET_FE_FLAG_INDEX(hdma));
 1626              		.loc 1 213 0 discriminator 65
 1627 0a84 02F58062 		add	r2, r2, #1024
 1628 0a88 9342     		cmp	r3, r2
 1629 0a8a 28D0     		beq	.L224
 213:/Users/Qianqian/Desktop/MPS/stm32lib/Drivers/STM32F7xx_HAL_Driver/Src/stm32f7xx_hal_dma_ex.c ****     __HAL_DMA_CLEAR_FLAG (hdma, __HAL_DMA_GET_FE_FLAG_INDEX(hdma));
 1630              		.loc 1 213 0 discriminator 67
 1631 0a8c A2F58962 		sub	r2, r2, #1096
 1632 0a90 9342     		cmp	r3, r2
 1633 0a92 27D0     		beq	.L225
 213:/Users/Qianqian/Desktop/MPS/stm32lib/Drivers/STM32F7xx_HAL_Driver/Src/stm32f7xx_hal_dma_ex.c ****     __HAL_DMA_CLEAR_FLAG (hdma, __HAL_DMA_GET_FE_FLAG_INDEX(hdma));
 1634              		.loc 1 213 0 discriminator 69
 1635 0a94 02F58062 		add	r2, r2, #1024
 1636 0a98 9342     		cmp	r3, r2
 1637 0a9a 26D0     		beq	.L226
 213:/Users/Qianqian/Desktop/MPS/stm32lib/Drivers/STM32F7xx_HAL_Driver/Src/stm32f7xx_hal_dma_ex.c ****     __HAL_DMA_CLEAR_FLAG (hdma, __HAL_DMA_GET_FE_FLAG_INDEX(hdma));
 1638              		.loc 1 213 0 discriminator 71
 1639 0a9c A2F56872 		sub	r2, r2, #928
 1640 0aa0 9342     		cmp	r3, r2
 1641 0aa2 25D0     		beq	.L227
 213:/Users/Qianqian/Desktop/MPS/stm32lib/Drivers/STM32F7xx_HAL_Driver/Src/stm32f7xx_hal_dma_ex.c ****     __HAL_DMA_CLEAR_FLAG (hdma, __HAL_DMA_GET_FE_FLAG_INDEX(hdma));
 1642              		.loc 1 213 0 discriminator 73
 1643 0aa4 02F58062 		add	r2, r2, #1024
 1644 0aa8 9342     		cmp	r3, r2
 1645 0aaa 02D0     		beq	.L318
 213:/Users/Qianqian/Desktop/MPS/stm32lib/Drivers/STM32F7xx_HAL_Driver/Src/stm32f7xx_hal_dma_ex.c ****     __HAL_DMA_CLEAR_FLAG (hdma, __HAL_DMA_GET_FE_FLAG_INDEX(hdma));
 1646              		.loc 1 213 0
 1647 0aac 4FF08072 		mov	r2, #16777216
 1648 0ab0 03E0     		b	.L46
 1649              	.L318:
 1650 0ab2 4FF48022 		mov	r2, #262144
 1651 0ab6 00E0     		b	.L46
 1652              	.L217:
 1653 0ab8 664A     		ldr	r2, .L331
 1654              	.L46:
 213:/Users/Qianqian/Desktop/MPS/stm32lib/Drivers/STM32F7xx_HAL_Driver/Src/stm32f7xx_hal_dma_ex.c ****     __HAL_DMA_CLEAR_FLAG (hdma, __HAL_DMA_GET_FE_FLAG_INDEX(hdma));
 1655              		.loc 1 213 0 discriminator 100
 1656 0aba 674B     		ldr	r3, .L331+4
 1657 0abc 9A60     		str	r2, [r3, #8]
 1658 0abe 64E7     		b	.L44
 1659              	.L218:
 213:/Users/Qianqian/Desktop/MPS/stm32lib/Drivers/STM32F7xx_HAL_Driver/Src/stm32f7xx_hal_dma_ex.c ****     __HAL_DMA_CLEAR_FLAG (hdma, __HAL_DMA_GET_FE_FLAG_INDEX(hdma));
 1660              		.loc 1 213 0
 1661 0ac0 644A     		ldr	r2, .L331
 1662 0ac2 FAE7     		b	.L46
 1663              	.L219:
 1664 0ac4 634A     		ldr	r2, .L331
 1665 0ac6 F8E7     		b	.L46
 1666              	.L220:
 1667 0ac8 624A     		ldr	r2, .L331
 1668 0aca F6E7     		b	.L46
 1669              	.L221:
 1670 0acc 4FF48072 		mov	r2, #256
 1671 0ad0 F3E7     		b	.L46
 1672              	.L222:
 1673 0ad2 4FF48072 		mov	r2, #256
 1674 0ad6 F0E7     		b	.L46
 1675              	.L223:
 1676 0ad8 4FF48072 		mov	r2, #256
 1677 0adc EDE7     		b	.L46
 1678              	.L224:
 1679 0ade 4FF48072 		mov	r2, #256
 1680 0ae2 EAE7     		b	.L46
 1681              	.L225:
 1682 0ae4 4FF48022 		mov	r2, #262144
 1683 0ae8 E7E7     		b	.L46
 1684              	.L226:
 1685 0aea 4FF48022 		mov	r2, #262144
 1686 0aee E4E7     		b	.L46
 1687              	.L227:
 1688 0af0 4FF48022 		mov	r2, #262144
 1689 0af4 E1E7     		b	.L46
 1690              	.L45:
 213:/Users/Qianqian/Desktop/MPS/stm32lib/Drivers/STM32F7xx_HAL_Driver/Src/stm32f7xx_hal_dma_ex.c ****     __HAL_DMA_CLEAR_FLAG (hdma, __HAL_DMA_GET_FE_FLAG_INDEX(hdma));
 1691              		.loc 1 213 0 discriminator 52
 1692 0af6 5B4A     		ldr	r2, .L331+16
 1693 0af8 9342     		cmp	r3, r2
 1694 0afa 53D9     		bls	.L47
 213:/Users/Qianqian/Desktop/MPS/stm32lib/Drivers/STM32F7xx_HAL_Driver/Src/stm32f7xx_hal_dma_ex.c ****     __HAL_DMA_CLEAR_FLAG (hdma, __HAL_DMA_GET_FE_FLAG_INDEX(hdma));
 1695              		.loc 1 213 0 discriminator 102
 1696 0afc 483A     		subs	r2, r2, #72
 1697 0afe 9342     		cmp	r3, r2
 1698 0b00 31D0     		beq	.L229
 213:/Users/Qianqian/Desktop/MPS/stm32lib/Drivers/STM32F7xx_HAL_Driver/Src/stm32f7xx_hal_dma_ex.c ****     __HAL_DMA_CLEAR_FLAG (hdma, __HAL_DMA_GET_FE_FLAG_INDEX(hdma));
 1699              		.loc 1 213 0 discriminator 104
 1700 0b02 02F58062 		add	r2, r2, #1024
 1701 0b06 9342     		cmp	r3, r2
 1702 0b08 31D0     		beq	.L230
 213:/Users/Qianqian/Desktop/MPS/stm32lib/Drivers/STM32F7xx_HAL_Driver/Src/stm32f7xx_hal_dma_ex.c ****     __HAL_DMA_CLEAR_FLAG (hdma, __HAL_DMA_GET_FE_FLAG_INDEX(hdma));
 1703              		.loc 1 213 0 discriminator 106
 1704 0b0a A2F56872 		sub	r2, r2, #928
 1705 0b0e 9342     		cmp	r3, r2
 1706 0b10 2FD0     		beq	.L231
 213:/Users/Qianqian/Desktop/MPS/stm32lib/Drivers/STM32F7xx_HAL_Driver/Src/stm32f7xx_hal_dma_ex.c ****     __HAL_DMA_CLEAR_FLAG (hdma, __HAL_DMA_GET_FE_FLAG_INDEX(hdma));
 1707              		.loc 1 213 0 discriminator 108
 1708 0b12 02F58062 		add	r2, r2, #1024
 1709 0b16 9342     		cmp	r3, r2
 1710 0b18 2DD0     		beq	.L232
 213:/Users/Qianqian/Desktop/MPS/stm32lib/Drivers/STM32F7xx_HAL_Driver/Src/stm32f7xx_hal_dma_ex.c ****     __HAL_DMA_CLEAR_FLAG (hdma, __HAL_DMA_GET_FE_FLAG_INDEX(hdma));
 1711              		.loc 1 213 0 discriminator 110
 1712 0b1a A2F58962 		sub	r2, r2, #1096
 1713 0b1e 9342     		cmp	r3, r2
 1714 0b20 2BD0     		beq	.L233
 213:/Users/Qianqian/Desktop/MPS/stm32lib/Drivers/STM32F7xx_HAL_Driver/Src/stm32f7xx_hal_dma_ex.c ****     __HAL_DMA_CLEAR_FLAG (hdma, __HAL_DMA_GET_FE_FLAG_INDEX(hdma));
 1715              		.loc 1 213 0 discriminator 112
 1716 0b22 02F58062 		add	r2, r2, #1024
 1717 0b26 9342     		cmp	r3, r2
 1718 0b28 2AD0     		beq	.L234
 213:/Users/Qianqian/Desktop/MPS/stm32lib/Drivers/STM32F7xx_HAL_Driver/Src/stm32f7xx_hal_dma_ex.c ****     __HAL_DMA_CLEAR_FLAG (hdma, __HAL_DMA_GET_FE_FLAG_INDEX(hdma));
 1719              		.loc 1 213 0 discriminator 114
 1720 0b2a A2F56872 		sub	r2, r2, #928
 1721 0b2e 9342     		cmp	r3, r2
 1722 0b30 29D0     		beq	.L235
 213:/Users/Qianqian/Desktop/MPS/stm32lib/Drivers/STM32F7xx_HAL_Driver/Src/stm32f7xx_hal_dma_ex.c ****     __HAL_DMA_CLEAR_FLAG (hdma, __HAL_DMA_GET_FE_FLAG_INDEX(hdma));
 1723              		.loc 1 213 0 discriminator 116
 1724 0b32 02F58062 		add	r2, r2, #1024
 1725 0b36 9342     		cmp	r3, r2
 1726 0b38 28D0     		beq	.L236
 213:/Users/Qianqian/Desktop/MPS/stm32lib/Drivers/STM32F7xx_HAL_Driver/Src/stm32f7xx_hal_dma_ex.c ****     __HAL_DMA_CLEAR_FLAG (hdma, __HAL_DMA_GET_FE_FLAG_INDEX(hdma));
 1727              		.loc 1 213 0 discriminator 118
 1728 0b3a A2F58962 		sub	r2, r2, #1096
 1729 0b3e 9342     		cmp	r3, r2
 1730 0b40 27D0     		beq	.L237
 213:/Users/Qianqian/Desktop/MPS/stm32lib/Drivers/STM32F7xx_HAL_Driver/Src/stm32f7xx_hal_dma_ex.c ****     __HAL_DMA_CLEAR_FLAG (hdma, __HAL_DMA_GET_FE_FLAG_INDEX(hdma));
 1731              		.loc 1 213 0 discriminator 120
 1732 0b42 02F58062 		add	r2, r2, #1024
 1733 0b46 9342     		cmp	r3, r2
 1734 0b48 26D0     		beq	.L238
 213:/Users/Qianqian/Desktop/MPS/stm32lib/Drivers/STM32F7xx_HAL_Driver/Src/stm32f7xx_hal_dma_ex.c ****     __HAL_DMA_CLEAR_FLAG (hdma, __HAL_DMA_GET_FE_FLAG_INDEX(hdma));
 1735              		.loc 1 213 0 discriminator 122
 1736 0b4a A2F56872 		sub	r2, r2, #928
 1737 0b4e 9342     		cmp	r3, r2
 1738 0b50 25D0     		beq	.L239
 213:/Users/Qianqian/Desktop/MPS/stm32lib/Drivers/STM32F7xx_HAL_Driver/Src/stm32f7xx_hal_dma_ex.c ****     __HAL_DMA_CLEAR_FLAG (hdma, __HAL_DMA_GET_FE_FLAG_INDEX(hdma));
 1739              		.loc 1 213 0 discriminator 124
 1740 0b52 02F58062 		add	r2, r2, #1024
 1741 0b56 9342     		cmp	r3, r2
 1742 0b58 02D0     		beq	.L319
 213:/Users/Qianqian/Desktop/MPS/stm32lib/Drivers/STM32F7xx_HAL_Driver/Src/stm32f7xx_hal_dma_ex.c ****     __HAL_DMA_CLEAR_FLAG (hdma, __HAL_DMA_GET_FE_FLAG_INDEX(hdma));
 1743              		.loc 1 213 0
 1744 0b5a 4FF08073 		mov	r3, #16777216
 1745 0b5e 03E0     		b	.L48
 1746              	.L319:
 1747 0b60 4FF48023 		mov	r3, #262144
 1748 0b64 00E0     		b	.L48
 1749              	.L229:
 1750 0b66 3B4B     		ldr	r3, .L331
 1751              	.L48:
 213:/Users/Qianqian/Desktop/MPS/stm32lib/Drivers/STM32F7xx_HAL_Driver/Src/stm32f7xx_hal_dma_ex.c ****     __HAL_DMA_CLEAR_FLAG (hdma, __HAL_DMA_GET_FE_FLAG_INDEX(hdma));
 1752              		.loc 1 213 0 discriminator 151
 1753 0b68 3F4A     		ldr	r2, .L331+20
 1754 0b6a D360     		str	r3, [r2, #12]
 1755 0b6c 0DE7     		b	.L44
 1756              	.L230:
 213:/Users/Qianqian/Desktop/MPS/stm32lib/Drivers/STM32F7xx_HAL_Driver/Src/stm32f7xx_hal_dma_ex.c ****     __HAL_DMA_CLEAR_FLAG (hdma, __HAL_DMA_GET_FE_FLAG_INDEX(hdma));
 1757              		.loc 1 213 0
 1758 0b6e 394B     		ldr	r3, .L331
 1759 0b70 FAE7     		b	.L48
 1760              	.L231:
 1761 0b72 384B     		ldr	r3, .L331
 1762 0b74 F8E7     		b	.L48
 1763              	.L232:
 1764 0b76 374B     		ldr	r3, .L331
 1765 0b78 F6E7     		b	.L48
 1766              	.L233:
 1767 0b7a 4FF48073 		mov	r3, #256
 1768 0b7e F3E7     		b	.L48
 1769              	.L234:
 1770 0b80 4FF48073 		mov	r3, #256
 1771 0b84 F0E7     		b	.L48
 1772              	.L235:
 1773 0b86 4FF48073 		mov	r3, #256
 1774 0b8a EDE7     		b	.L48
 1775              	.L236:
 1776 0b8c 4FF48073 		mov	r3, #256
 1777 0b90 EAE7     		b	.L48
 1778              	.L237:
 1779 0b92 4FF48023 		mov	r3, #262144
 1780 0b96 E7E7     		b	.L48
 1781              	.L238:
 1782 0b98 4FF48023 		mov	r3, #262144
 1783 0b9c E4E7     		b	.L48
 1784              	.L239:
 1785 0b9e 4FF48023 		mov	r3, #262144
 1786 0ba2 E1E7     		b	.L48
 1787              	.L47:
 213:/Users/Qianqian/Desktop/MPS/stm32lib/Drivers/STM32F7xx_HAL_Driver/Src/stm32f7xx_hal_dma_ex.c ****     __HAL_DMA_CLEAR_FLAG (hdma, __HAL_DMA_GET_FE_FLAG_INDEX(hdma));
 1788              		.loc 1 213 0 discriminator 103
 1789 0ba4 314A     		ldr	r2, .L331+24
 1790 0ba6 9342     		cmp	r3, r2
 1791 0ba8 31D0     		beq	.L241
 213:/Users/Qianqian/Desktop/MPS/stm32lib/Drivers/STM32F7xx_HAL_Driver/Src/stm32f7xx_hal_dma_ex.c ****     __HAL_DMA_CLEAR_FLAG (hdma, __HAL_DMA_GET_FE_FLAG_INDEX(hdma));
 1792              		.loc 1 213 0 discriminator 153
 1793 0baa 02F58062 		add	r2, r2, #1024
 1794 0bae 9342     		cmp	r3, r2
 1795 0bb0 31D0     		beq	.L242
 213:/Users/Qianqian/Desktop/MPS/stm32lib/Drivers/STM32F7xx_HAL_Driver/Src/stm32f7xx_hal_dma_ex.c ****     __HAL_DMA_CLEAR_FLAG (hdma, __HAL_DMA_GET_FE_FLAG_INDEX(hdma));
 1796              		.loc 1 213 0 discriminator 155
 1797 0bb2 A2F56872 		sub	r2, r2, #928
 1798 0bb6 9342     		cmp	r3, r2
 1799 0bb8 2FD0     		beq	.L243
 213:/Users/Qianqian/Desktop/MPS/stm32lib/Drivers/STM32F7xx_HAL_Driver/Src/stm32f7xx_hal_dma_ex.c ****     __HAL_DMA_CLEAR_FLAG (hdma, __HAL_DMA_GET_FE_FLAG_INDEX(hdma));
 1800              		.loc 1 213 0 discriminator 157
 1801 0bba 02F58062 		add	r2, r2, #1024
 1802 0bbe 9342     		cmp	r3, r2
 1803 0bc0 2DD0     		beq	.L244
 213:/Users/Qianqian/Desktop/MPS/stm32lib/Drivers/STM32F7xx_HAL_Driver/Src/stm32f7xx_hal_dma_ex.c ****     __HAL_DMA_CLEAR_FLAG (hdma, __HAL_DMA_GET_FE_FLAG_INDEX(hdma));
 1804              		.loc 1 213 0 discriminator 159
 1805 0bc2 A2F58962 		sub	r2, r2, #1096
 1806 0bc6 9342     		cmp	r3, r2
 1807 0bc8 2BD0     		beq	.L245
 213:/Users/Qianqian/Desktop/MPS/stm32lib/Drivers/STM32F7xx_HAL_Driver/Src/stm32f7xx_hal_dma_ex.c ****     __HAL_DMA_CLEAR_FLAG (hdma, __HAL_DMA_GET_FE_FLAG_INDEX(hdma));
 1808              		.loc 1 213 0 discriminator 161
 1809 0bca 02F58062 		add	r2, r2, #1024
 1810 0bce 9342     		cmp	r3, r2
 1811 0bd0 2AD0     		beq	.L246
 213:/Users/Qianqian/Desktop/MPS/stm32lib/Drivers/STM32F7xx_HAL_Driver/Src/stm32f7xx_hal_dma_ex.c ****     __HAL_DMA_CLEAR_FLAG (hdma, __HAL_DMA_GET_FE_FLAG_INDEX(hdma));
 1812              		.loc 1 213 0 discriminator 163
 1813 0bd2 A2F56872 		sub	r2, r2, #928
 1814 0bd6 9342     		cmp	r3, r2
 1815 0bd8 29D0     		beq	.L247
 213:/Users/Qianqian/Desktop/MPS/stm32lib/Drivers/STM32F7xx_HAL_Driver/Src/stm32f7xx_hal_dma_ex.c ****     __HAL_DMA_CLEAR_FLAG (hdma, __HAL_DMA_GET_FE_FLAG_INDEX(hdma));
 1816              		.loc 1 213 0 discriminator 165
 1817 0bda 02F58062 		add	r2, r2, #1024
 1818 0bde 9342     		cmp	r3, r2
 1819 0be0 28D0     		beq	.L248
 213:/Users/Qianqian/Desktop/MPS/stm32lib/Drivers/STM32F7xx_HAL_Driver/Src/stm32f7xx_hal_dma_ex.c ****     __HAL_DMA_CLEAR_FLAG (hdma, __HAL_DMA_GET_FE_FLAG_INDEX(hdma));
 1820              		.loc 1 213 0 discriminator 167
 1821 0be2 A2F58962 		sub	r2, r2, #1096
 1822 0be6 9342     		cmp	r3, r2
 1823 0be8 27D0     		beq	.L249
 213:/Users/Qianqian/Desktop/MPS/stm32lib/Drivers/STM32F7xx_HAL_Driver/Src/stm32f7xx_hal_dma_ex.c ****     __HAL_DMA_CLEAR_FLAG (hdma, __HAL_DMA_GET_FE_FLAG_INDEX(hdma));
 1824              		.loc 1 213 0 discriminator 169
 1825 0bea 02F58062 		add	r2, r2, #1024
 1826 0bee 9342     		cmp	r3, r2
 1827 0bf0 26D0     		beq	.L250
 213:/Users/Qianqian/Desktop/MPS/stm32lib/Drivers/STM32F7xx_HAL_Driver/Src/stm32f7xx_hal_dma_ex.c ****     __HAL_DMA_CLEAR_FLAG (hdma, __HAL_DMA_GET_FE_FLAG_INDEX(hdma));
 1828              		.loc 1 213 0 discriminator 171
 1829 0bf2 A2F56872 		sub	r2, r2, #928
 1830 0bf6 9342     		cmp	r3, r2
 1831 0bf8 25D0     		beq	.L251
 213:/Users/Qianqian/Desktop/MPS/stm32lib/Drivers/STM32F7xx_HAL_Driver/Src/stm32f7xx_hal_dma_ex.c ****     __HAL_DMA_CLEAR_FLAG (hdma, __HAL_DMA_GET_FE_FLAG_INDEX(hdma));
 1832              		.loc 1 213 0 discriminator 173
 1833 0bfa 02F58062 		add	r2, r2, #1024
 1834 0bfe 9342     		cmp	r3, r2
 1835 0c00 02D0     		beq	.L320
 213:/Users/Qianqian/Desktop/MPS/stm32lib/Drivers/STM32F7xx_HAL_Driver/Src/stm32f7xx_hal_dma_ex.c ****     __HAL_DMA_CLEAR_FLAG (hdma, __HAL_DMA_GET_FE_FLAG_INDEX(hdma));
 1836              		.loc 1 213 0
 1837 0c02 4FF08073 		mov	r3, #16777216
 1838 0c06 03E0     		b	.L49
 1839              	.L320:
 1840 0c08 4FF48023 		mov	r3, #262144
 1841 0c0c 00E0     		b	.L49
 1842              	.L241:
 1843 0c0e 114B     		ldr	r3, .L331
 1844              	.L49:
 213:/Users/Qianqian/Desktop/MPS/stm32lib/Drivers/STM32F7xx_HAL_Driver/Src/stm32f7xx_hal_dma_ex.c ****     __HAL_DMA_CLEAR_FLAG (hdma, __HAL_DMA_GET_FE_FLAG_INDEX(hdma));
 1845              		.loc 1 213 0 discriminator 200
 1846 0c10 154A     		ldr	r2, .L331+20
 1847 0c12 9360     		str	r3, [r2, #8]
 1848 0c14 B9E6     		b	.L44
 1849              	.L242:
 213:/Users/Qianqian/Desktop/MPS/stm32lib/Drivers/STM32F7xx_HAL_Driver/Src/stm32f7xx_hal_dma_ex.c ****     __HAL_DMA_CLEAR_FLAG (hdma, __HAL_DMA_GET_FE_FLAG_INDEX(hdma));
 1850              		.loc 1 213 0
 1851 0c16 0F4B     		ldr	r3, .L331
 1852 0c18 FAE7     		b	.L49
 1853              	.L243:
 1854 0c1a 0E4B     		ldr	r3, .L331
 1855 0c1c F8E7     		b	.L49
 1856              	.L244:
 1857 0c1e 0D4B     		ldr	r3, .L331
 1858 0c20 F6E7     		b	.L49
 1859              	.L245:
 1860 0c22 4FF48073 		mov	r3, #256
 1861 0c26 F3E7     		b	.L49
 1862              	.L246:
 1863 0c28 4FF48073 		mov	r3, #256
 1864 0c2c F0E7     		b	.L49
 1865              	.L247:
 1866 0c2e 4FF48073 		mov	r3, #256
 1867 0c32 EDE7     		b	.L49
 1868              	.L248:
 1869 0c34 4FF48073 		mov	r3, #256
 1870 0c38 EAE7     		b	.L49
 1871              	.L249:
 1872 0c3a 4FF48023 		mov	r3, #262144
 1873 0c3e E7E7     		b	.L49
 1874              	.L250:
 1875 0c40 4FF48023 		mov	r3, #262144
 1876 0c44 E4E7     		b	.L49
 1877              	.L251:
 1878 0c46 4FF48023 		mov	r3, #262144
 1879 0c4a E1E7     		b	.L49
 1880              	.L317:
 214:/Users/Qianqian/Desktop/MPS/stm32lib/Drivers/STM32F7xx_HAL_Driver/Src/stm32f7xx_hal_dma_ex.c ****     
 1881              		.loc 1 214 0 is_stmt 1
 1882 0c4c 4FF48032 		mov	r2, #65536
 1883 0c50 0FE0     		b	.L51
 1884              	.L332:
 1885 0c52 00BF     		.align	2
 1886              	.L331:
 1887 0c54 04008000 		.word	8388612
 1888 0c58 00640240 		.word	1073898496
 1889 0c5c 58640240 		.word	1073898584
 1890 0c60 B8600240 		.word	1073897656
 1891 0c64 58600240 		.word	1073897560
 1892 0c68 00600240 		.word	1073897472
 1893 0c6c 10600240 		.word	1073897488
 1894              	.L253:
 1895 0c70 994A     		ldr	r2, .L333
 1896              	.L51:
 214:/Users/Qianqian/Desktop/MPS/stm32lib/Drivers/STM32F7xx_HAL_Driver/Src/stm32f7xx_hal_dma_ex.c ****     
 1897              		.loc 1 214 0 is_stmt 0 discriminator 50
 1898 0c72 9A4B     		ldr	r3, .L333+4
 1899 0c74 DA60     		str	r2, [r3, #12]
 1900              	.L52:
 217:/Users/Qianqian/Desktop/MPS/stm32lib/Drivers/STM32F7xx_HAL_Driver/Src/stm32f7xx_hal_dma_ex.c ****     hdma->Instance->FCR |= DMA_IT_FE;
 1901              		.loc 1 217 0 is_stmt 1
 1902 0c76 2268     		ldr	r2, [r4]
 1903 0c78 1368     		ldr	r3, [r2]
 1904 0c7a 43F01603 		orr	r3, r3, #22
 1905 0c7e 1360     		str	r3, [r2]
 218:/Users/Qianqian/Desktop/MPS/stm32lib/Drivers/STM32F7xx_HAL_Driver/Src/stm32f7xx_hal_dma_ex.c ****     
 1906              		.loc 1 218 0
 1907 0c80 2268     		ldr	r2, [r4]
 1908 0c82 5369     		ldr	r3, [r2, #20]
 1909 0c84 43F08003 		orr	r3, r3, #128
 1910 0c88 5361     		str	r3, [r2, #20]
 220:/Users/Qianqian/Desktop/MPS/stm32lib/Drivers/STM32F7xx_HAL_Driver/Src/stm32f7xx_hal_dma_ex.c ****     {
 1911              		.loc 1 220 0
 1912 0c8a 236C     		ldr	r3, [r4, #64]
 1913 0c8c 002B     		cmp	r3, #0
 1914 0c8e 00F01A81 		beq	.L321
 1915              	.L58:
 222:/Users/Qianqian/Desktop/MPS/stm32lib/Drivers/STM32F7xx_HAL_Driver/Src/stm32f7xx_hal_dma_ex.c ****     }
 1916              		.loc 1 222 0
 1917 0c92 2268     		ldr	r2, [r4]
 1918 0c94 1368     		ldr	r3, [r2]
 1919 0c96 43F00803 		orr	r3, r3, #8
 1920 0c9a 1360     		str	r3, [r2]
 1921              	.L59:
 226:/Users/Qianqian/Desktop/MPS/stm32lib/Drivers/STM32F7xx_HAL_Driver/Src/stm32f7xx_hal_dma_ex.c ****   }
 1922              		.loc 1 226 0
 1923 0c9c 2268     		ldr	r2, [r4]
 1924 0c9e 1368     		ldr	r3, [r2]
 1925 0ca0 43F00103 		orr	r3, r3, #1
 1926 0ca4 1360     		str	r3, [r2]
 177:/Users/Qianqian/Desktop/MPS/stm32lib/Drivers/STM32F7xx_HAL_Driver/Src/stm32f7xx_hal_dma_ex.c ****   
 1927              		.loc 1 177 0
 1928 0ca6 0020     		movs	r0, #0
 1929 0ca8 FFF7BFB9 		b	.L16
 1930              	.L254:
 214:/Users/Qianqian/Desktop/MPS/stm32lib/Drivers/STM32F7xx_HAL_Driver/Src/stm32f7xx_hal_dma_ex.c ****     
 1931              		.loc 1 214 0
 1932 0cac 8A4A     		ldr	r2, .L333
 1933 0cae E0E7     		b	.L51
 1934              	.L255:
 1935 0cb0 894A     		ldr	r2, .L333
 1936 0cb2 DEE7     		b	.L51
 1937              	.L256:
 1938 0cb4 884A     		ldr	r2, .L333
 1939 0cb6 DCE7     		b	.L51
 1940              	.L257:
 1941 0cb8 4022     		movs	r2, #64
 1942 0cba DAE7     		b	.L51
 1943              	.L258:
 1944 0cbc 4022     		movs	r2, #64
 1945 0cbe D8E7     		b	.L51
 1946              	.L259:
 1947 0cc0 4022     		movs	r2, #64
 1948 0cc2 D6E7     		b	.L51
 1949              	.L260:
 1950 0cc4 4022     		movs	r2, #64
 1951 0cc6 D4E7     		b	.L51
 1952              	.L261:
 1953 0cc8 4FF48032 		mov	r2, #65536
 1954 0ccc D1E7     		b	.L51
 1955              	.L262:
 1956 0cce 4FF48032 		mov	r2, #65536
 1957 0cd2 CEE7     		b	.L51
 1958              	.L263:
 1959 0cd4 4FF48032 		mov	r2, #65536
 1960 0cd8 CBE7     		b	.L51
 1961              	.L50:
 214:/Users/Qianqian/Desktop/MPS/stm32lib/Drivers/STM32F7xx_HAL_Driver/Src/stm32f7xx_hal_dma_ex.c ****     
 1962              		.loc 1 214 0 is_stmt 0 discriminator 2
 1963 0cda 814A     		ldr	r2, .L333+8
 1964 0cdc 9342     		cmp	r3, r2
 1965 0cde 4FD9     		bls	.L53
 214:/Users/Qianqian/Desktop/MPS/stm32lib/Drivers/STM32F7xx_HAL_Driver/Src/stm32f7xx_hal_dma_ex.c ****     
 1966              		.loc 1 214 0 discriminator 51
 1967 0ce0 A83A     		subs	r2, r2, #168
 1968 0ce2 9342     		cmp	r3, r2
 1969 0ce4 31D0     		beq	.L265
 214:/Users/Qianqian/Desktop/MPS/stm32lib/Drivers/STM32F7xx_HAL_Driver/Src/stm32f7xx_hal_dma_ex.c ****     
 1970              		.loc 1 214 0 discriminator 53
 1971 0ce6 02F58062 		add	r2, r2, #1024
 1972 0cea 9342     		cmp	r3, r2
 1973 0cec 31D0     		beq	.L266
 214:/Users/Qianqian/Desktop/MPS/stm32lib/Drivers/STM32F7xx_HAL_Driver/Src/stm32f7xx_hal_dma_ex.c ****     
 1974              		.loc 1 214 0 discriminator 55
 1975 0cee A2F56872 		sub	r2, r2, #928
 1976 0cf2 9342     		cmp	r3, r2
 1977 0cf4 2FD0     		beq	.L267
 214:/Users/Qianqian/Desktop/MPS/stm32lib/Drivers/STM32F7xx_HAL_Driver/Src/stm32f7xx_hal_dma_ex.c ****     
 1978              		.loc 1 214 0 discriminator 57
 1979 0cf6 02F58062 		add	r2, r2, #1024
 1980 0cfa 9342     		cmp	r3, r2
 1981 0cfc 2DD0     		beq	.L268
 214:/Users/Qianqian/Desktop/MPS/stm32lib/Drivers/STM32F7xx_HAL_Driver/Src/stm32f7xx_hal_dma_ex.c ****     
 1982              		.loc 1 214 0 discriminator 59
 1983 0cfe A2F58962 		sub	r2, r2, #1096
 1984 0d02 9342     		cmp	r3, r2
 1985 0d04 2BD0     		beq	.L269
 214:/Users/Qianqian/Desktop/MPS/stm32lib/Drivers/STM32F7xx_HAL_Driver/Src/stm32f7xx_hal_dma_ex.c ****     
 1986              		.loc 1 214 0 discriminator 61
 1987 0d06 02F58062 		add	r2, r2, #1024
 1988 0d0a 9342     		cmp	r3, r2
 1989 0d0c 29D0     		beq	.L270
 214:/Users/Qianqian/Desktop/MPS/stm32lib/Drivers/STM32F7xx_HAL_Driver/Src/stm32f7xx_hal_dma_ex.c ****     
 1990              		.loc 1 214 0 discriminator 63
 1991 0d0e A2F56872 		sub	r2, r2, #928
 1992 0d12 9342     		cmp	r3, r2
 1993 0d14 27D0     		beq	.L271
 214:/Users/Qianqian/Desktop/MPS/stm32lib/Drivers/STM32F7xx_HAL_Driver/Src/stm32f7xx_hal_dma_ex.c ****     
 1994              		.loc 1 214 0 discriminator 65
 1995 0d16 02F58062 		add	r2, r2, #1024
 1996 0d1a 9342     		cmp	r3, r2
 1997 0d1c 25D0     		beq	.L272
 214:/Users/Qianqian/Desktop/MPS/stm32lib/Drivers/STM32F7xx_HAL_Driver/Src/stm32f7xx_hal_dma_ex.c ****     
 1998              		.loc 1 214 0 discriminator 67
 1999 0d1e A2F58962 		sub	r2, r2, #1096
 2000 0d22 9342     		cmp	r3, r2
 2001 0d24 23D0     		beq	.L273
 214:/Users/Qianqian/Desktop/MPS/stm32lib/Drivers/STM32F7xx_HAL_Driver/Src/stm32f7xx_hal_dma_ex.c ****     
 2002              		.loc 1 214 0 discriminator 69
 2003 0d26 02F58062 		add	r2, r2, #1024
 2004 0d2a 9342     		cmp	r3, r2
 2005 0d2c 22D0     		beq	.L274
 214:/Users/Qianqian/Desktop/MPS/stm32lib/Drivers/STM32F7xx_HAL_Driver/Src/stm32f7xx_hal_dma_ex.c ****     
 2006              		.loc 1 214 0 discriminator 71
 2007 0d2e A2F56872 		sub	r2, r2, #928
 2008 0d32 9342     		cmp	r3, r2
 2009 0d34 21D0     		beq	.L275
 214:/Users/Qianqian/Desktop/MPS/stm32lib/Drivers/STM32F7xx_HAL_Driver/Src/stm32f7xx_hal_dma_ex.c ****     
 2010              		.loc 1 214 0 discriminator 73
 2011 0d36 02F58062 		add	r2, r2, #1024
 2012 0d3a 9342     		cmp	r3, r2
 2013 0d3c 02D0     		beq	.L322
 214:/Users/Qianqian/Desktop/MPS/stm32lib/Drivers/STM32F7xx_HAL_Driver/Src/stm32f7xx_hal_dma_ex.c ****     
 2014              		.loc 1 214 0
 2015 0d3e 4FF48002 		mov	r2, #4194304
 2016 0d42 03E0     		b	.L54
 2017              	.L322:
 2018 0d44 4FF48032 		mov	r2, #65536
 2019 0d48 00E0     		b	.L54
 2020              	.L265:
 2021 0d4a 634A     		ldr	r2, .L333
 2022              	.L54:
 214:/Users/Qianqian/Desktop/MPS/stm32lib/Drivers/STM32F7xx_HAL_Driver/Src/stm32f7xx_hal_dma_ex.c ****     
 2023              		.loc 1 214 0 discriminator 100
 2024 0d4c 634B     		ldr	r3, .L333+4
 2025 0d4e 9A60     		str	r2, [r3, #8]
 2026 0d50 91E7     		b	.L52
 2027              	.L266:
 214:/Users/Qianqian/Desktop/MPS/stm32lib/Drivers/STM32F7xx_HAL_Driver/Src/stm32f7xx_hal_dma_ex.c ****     
 2028              		.loc 1 214 0
 2029 0d52 614A     		ldr	r2, .L333
 2030 0d54 FAE7     		b	.L54
 2031              	.L267:
 2032 0d56 604A     		ldr	r2, .L333
 2033 0d58 F8E7     		b	.L54
 2034              	.L268:
 2035 0d5a 5F4A     		ldr	r2, .L333
 2036 0d5c F6E7     		b	.L54
 2037              	.L269:
 2038 0d5e 4022     		movs	r2, #64
 2039 0d60 F4E7     		b	.L54
 2040              	.L270:
 2041 0d62 4022     		movs	r2, #64
 2042 0d64 F2E7     		b	.L54
 2043              	.L271:
 2044 0d66 4022     		movs	r2, #64
 2045 0d68 F0E7     		b	.L54
 2046              	.L272:
 2047 0d6a 4022     		movs	r2, #64
 2048 0d6c EEE7     		b	.L54
 2049              	.L273:
 2050 0d6e 4FF48032 		mov	r2, #65536
 2051 0d72 EBE7     		b	.L54
 2052              	.L274:
 2053 0d74 4FF48032 		mov	r2, #65536
 2054 0d78 E8E7     		b	.L54
 2055              	.L275:
 2056 0d7a 4FF48032 		mov	r2, #65536
 2057 0d7e E5E7     		b	.L54
 2058              	.L53:
 214:/Users/Qianqian/Desktop/MPS/stm32lib/Drivers/STM32F7xx_HAL_Driver/Src/stm32f7xx_hal_dma_ex.c ****     
 2059              		.loc 1 214 0 discriminator 52
 2060 0d80 584A     		ldr	r2, .L333+12
 2061 0d82 9342     		cmp	r3, r2
 2062 0d84 4FD9     		bls	.L55
 214:/Users/Qianqian/Desktop/MPS/stm32lib/Drivers/STM32F7xx_HAL_Driver/Src/stm32f7xx_hal_dma_ex.c ****     
 2063              		.loc 1 214 0 discriminator 102
 2064 0d86 483A     		subs	r2, r2, #72
 2065 0d88 9342     		cmp	r3, r2
 2066 0d8a 31D0     		beq	.L277
 214:/Users/Qianqian/Desktop/MPS/stm32lib/Drivers/STM32F7xx_HAL_Driver/Src/stm32f7xx_hal_dma_ex.c ****     
 2067              		.loc 1 214 0 discriminator 104
 2068 0d8c 02F58062 		add	r2, r2, #1024
 2069 0d90 9342     		cmp	r3, r2
 2070 0d92 31D0     		beq	.L278
 214:/Users/Qianqian/Desktop/MPS/stm32lib/Drivers/STM32F7xx_HAL_Driver/Src/stm32f7xx_hal_dma_ex.c ****     
 2071              		.loc 1 214 0 discriminator 106
 2072 0d94 A2F56872 		sub	r2, r2, #928
 2073 0d98 9342     		cmp	r3, r2
 2074 0d9a 2FD0     		beq	.L279
 214:/Users/Qianqian/Desktop/MPS/stm32lib/Drivers/STM32F7xx_HAL_Driver/Src/stm32f7xx_hal_dma_ex.c ****     
 2075              		.loc 1 214 0 discriminator 108
 2076 0d9c 02F58062 		add	r2, r2, #1024
 2077 0da0 9342     		cmp	r3, r2
 2078 0da2 2DD0     		beq	.L280
 214:/Users/Qianqian/Desktop/MPS/stm32lib/Drivers/STM32F7xx_HAL_Driver/Src/stm32f7xx_hal_dma_ex.c ****     
 2079              		.loc 1 214 0 discriminator 110
 2080 0da4 A2F58962 		sub	r2, r2, #1096
 2081 0da8 9342     		cmp	r3, r2
 2082 0daa 2BD0     		beq	.L281
 214:/Users/Qianqian/Desktop/MPS/stm32lib/Drivers/STM32F7xx_HAL_Driver/Src/stm32f7xx_hal_dma_ex.c ****     
 2083              		.loc 1 214 0 discriminator 112
 2084 0dac 02F58062 		add	r2, r2, #1024
 2085 0db0 9342     		cmp	r3, r2
 2086 0db2 29D0     		beq	.L282
 214:/Users/Qianqian/Desktop/MPS/stm32lib/Drivers/STM32F7xx_HAL_Driver/Src/stm32f7xx_hal_dma_ex.c ****     
 2087              		.loc 1 214 0 discriminator 114
 2088 0db4 A2F56872 		sub	r2, r2, #928
 2089 0db8 9342     		cmp	r3, r2
 2090 0dba 27D0     		beq	.L283
 214:/Users/Qianqian/Desktop/MPS/stm32lib/Drivers/STM32F7xx_HAL_Driver/Src/stm32f7xx_hal_dma_ex.c ****     
 2091              		.loc 1 214 0 discriminator 116
 2092 0dbc 02F58062 		add	r2, r2, #1024
 2093 0dc0 9342     		cmp	r3, r2
 2094 0dc2 25D0     		beq	.L284
 214:/Users/Qianqian/Desktop/MPS/stm32lib/Drivers/STM32F7xx_HAL_Driver/Src/stm32f7xx_hal_dma_ex.c ****     
 2095              		.loc 1 214 0 discriminator 118
 2096 0dc4 A2F58962 		sub	r2, r2, #1096
 2097 0dc8 9342     		cmp	r3, r2
 2098 0dca 23D0     		beq	.L285
 214:/Users/Qianqian/Desktop/MPS/stm32lib/Drivers/STM32F7xx_HAL_Driver/Src/stm32f7xx_hal_dma_ex.c ****     
 2099              		.loc 1 214 0 discriminator 120
 2100 0dcc 02F58062 		add	r2, r2, #1024
 2101 0dd0 9342     		cmp	r3, r2
 2102 0dd2 22D0     		beq	.L286
 214:/Users/Qianqian/Desktop/MPS/stm32lib/Drivers/STM32F7xx_HAL_Driver/Src/stm32f7xx_hal_dma_ex.c ****     
 2103              		.loc 1 214 0 discriminator 122
 2104 0dd4 A2F56872 		sub	r2, r2, #928
 2105 0dd8 9342     		cmp	r3, r2
 2106 0dda 21D0     		beq	.L287
 214:/Users/Qianqian/Desktop/MPS/stm32lib/Drivers/STM32F7xx_HAL_Driver/Src/stm32f7xx_hal_dma_ex.c ****     
 2107              		.loc 1 214 0 discriminator 124
 2108 0ddc 02F58062 		add	r2, r2, #1024
 2109 0de0 9342     		cmp	r3, r2
 2110 0de2 02D0     		beq	.L323
 214:/Users/Qianqian/Desktop/MPS/stm32lib/Drivers/STM32F7xx_HAL_Driver/Src/stm32f7xx_hal_dma_ex.c ****     
 2111              		.loc 1 214 0
 2112 0de4 4FF48003 		mov	r3, #4194304
 2113 0de8 03E0     		b	.L56
 2114              	.L323:
 2115 0dea 4FF48033 		mov	r3, #65536
 2116 0dee 00E0     		b	.L56
 2117              	.L277:
 2118 0df0 394B     		ldr	r3, .L333
 2119              	.L56:
 214:/Users/Qianqian/Desktop/MPS/stm32lib/Drivers/STM32F7xx_HAL_Driver/Src/stm32f7xx_hal_dma_ex.c ****     
 2120              		.loc 1 214 0 discriminator 151
 2121 0df2 3D4A     		ldr	r2, .L333+16
 2122 0df4 D360     		str	r3, [r2, #12]
 2123 0df6 3EE7     		b	.L52
 2124              	.L278:
 214:/Users/Qianqian/Desktop/MPS/stm32lib/Drivers/STM32F7xx_HAL_Driver/Src/stm32f7xx_hal_dma_ex.c ****     
 2125              		.loc 1 214 0
 2126 0df8 374B     		ldr	r3, .L333
 2127 0dfa FAE7     		b	.L56
 2128              	.L279:
 2129 0dfc 364B     		ldr	r3, .L333
 2130 0dfe F8E7     		b	.L56
 2131              	.L280:
 2132 0e00 354B     		ldr	r3, .L333
 2133 0e02 F6E7     		b	.L56
 2134              	.L281:
 2135 0e04 4023     		movs	r3, #64
 2136 0e06 F4E7     		b	.L56
 2137              	.L282:
 2138 0e08 4023     		movs	r3, #64
 2139 0e0a F2E7     		b	.L56
 2140              	.L283:
 2141 0e0c 4023     		movs	r3, #64
 2142 0e0e F0E7     		b	.L56
 2143              	.L284:
 2144 0e10 4023     		movs	r3, #64
 2145 0e12 EEE7     		b	.L56
 2146              	.L285:
 2147 0e14 4FF48033 		mov	r3, #65536
 2148 0e18 EBE7     		b	.L56
 2149              	.L286:
 2150 0e1a 4FF48033 		mov	r3, #65536
 2151 0e1e E8E7     		b	.L56
 2152              	.L287:
 2153 0e20 4FF48033 		mov	r3, #65536
 2154 0e24 E5E7     		b	.L56
 2155              	.L55:
 214:/Users/Qianqian/Desktop/MPS/stm32lib/Drivers/STM32F7xx_HAL_Driver/Src/stm32f7xx_hal_dma_ex.c ****     
 2156              		.loc 1 214 0 discriminator 103
 2157 0e26 314A     		ldr	r2, .L333+20
 2158 0e28 9342     		cmp	r3, r2
 2159 0e2a 31D0     		beq	.L289
 214:/Users/Qianqian/Desktop/MPS/stm32lib/Drivers/STM32F7xx_HAL_Driver/Src/stm32f7xx_hal_dma_ex.c ****     
 2160              		.loc 1 214 0 discriminator 153
 2161 0e2c 02F58062 		add	r2, r2, #1024
 2162 0e30 9342     		cmp	r3, r2
 2163 0e32 31D0     		beq	.L290
 214:/Users/Qianqian/Desktop/MPS/stm32lib/Drivers/STM32F7xx_HAL_Driver/Src/stm32f7xx_hal_dma_ex.c ****     
 2164              		.loc 1 214 0 discriminator 155
 2165 0e34 A2F56872 		sub	r2, r2, #928
 2166 0e38 9342     		cmp	r3, r2
 2167 0e3a 2FD0     		beq	.L291
 214:/Users/Qianqian/Desktop/MPS/stm32lib/Drivers/STM32F7xx_HAL_Driver/Src/stm32f7xx_hal_dma_ex.c ****     
 2168              		.loc 1 214 0 discriminator 157
 2169 0e3c 02F58062 		add	r2, r2, #1024
 2170 0e40 9342     		cmp	r3, r2
 2171 0e42 2DD0     		beq	.L292
 214:/Users/Qianqian/Desktop/MPS/stm32lib/Drivers/STM32F7xx_HAL_Driver/Src/stm32f7xx_hal_dma_ex.c ****     
 2172              		.loc 1 214 0 discriminator 159
 2173 0e44 A2F58962 		sub	r2, r2, #1096
 2174 0e48 9342     		cmp	r3, r2
 2175 0e4a 2BD0     		beq	.L293
 214:/Users/Qianqian/Desktop/MPS/stm32lib/Drivers/STM32F7xx_HAL_Driver/Src/stm32f7xx_hal_dma_ex.c ****     
 2176              		.loc 1 214 0 discriminator 161
 2177 0e4c 02F58062 		add	r2, r2, #1024
 2178 0e50 9342     		cmp	r3, r2
 2179 0e52 29D0     		beq	.L294
 214:/Users/Qianqian/Desktop/MPS/stm32lib/Drivers/STM32F7xx_HAL_Driver/Src/stm32f7xx_hal_dma_ex.c ****     
 2180              		.loc 1 214 0 discriminator 163
 2181 0e54 A2F56872 		sub	r2, r2, #928
 2182 0e58 9342     		cmp	r3, r2
 2183 0e5a 27D0     		beq	.L295
 214:/Users/Qianqian/Desktop/MPS/stm32lib/Drivers/STM32F7xx_HAL_Driver/Src/stm32f7xx_hal_dma_ex.c ****     
 2184              		.loc 1 214 0 discriminator 165
 2185 0e5c 02F58062 		add	r2, r2, #1024
 2186 0e60 9342     		cmp	r3, r2
 2187 0e62 25D0     		beq	.L296
 214:/Users/Qianqian/Desktop/MPS/stm32lib/Drivers/STM32F7xx_HAL_Driver/Src/stm32f7xx_hal_dma_ex.c ****     
 2188              		.loc 1 214 0 discriminator 167
 2189 0e64 A2F58962 		sub	r2, r2, #1096
 2190 0e68 9342     		cmp	r3, r2
 2191 0e6a 23D0     		beq	.L297
 214:/Users/Qianqian/Desktop/MPS/stm32lib/Drivers/STM32F7xx_HAL_Driver/Src/stm32f7xx_hal_dma_ex.c ****     
 2192              		.loc 1 214 0 discriminator 169
 2193 0e6c 02F58062 		add	r2, r2, #1024
 2194 0e70 9342     		cmp	r3, r2
 2195 0e72 22D0     		beq	.L298
 214:/Users/Qianqian/Desktop/MPS/stm32lib/Drivers/STM32F7xx_HAL_Driver/Src/stm32f7xx_hal_dma_ex.c ****     
 2196              		.loc 1 214 0 discriminator 171
 2197 0e74 A2F56872 		sub	r2, r2, #928
 2198 0e78 9342     		cmp	r3, r2
 2199 0e7a 21D0     		beq	.L299
 214:/Users/Qianqian/Desktop/MPS/stm32lib/Drivers/STM32F7xx_HAL_Driver/Src/stm32f7xx_hal_dma_ex.c ****     
 2200              		.loc 1 214 0 discriminator 173
 2201 0e7c 02F58062 		add	r2, r2, #1024
 2202 0e80 9342     		cmp	r3, r2
 2203 0e82 02D0     		beq	.L324
 214:/Users/Qianqian/Desktop/MPS/stm32lib/Drivers/STM32F7xx_HAL_Driver/Src/stm32f7xx_hal_dma_ex.c ****     
 2204              		.loc 1 214 0
 2205 0e84 4FF48003 		mov	r3, #4194304
 2206 0e88 03E0     		b	.L57
 2207              	.L324:
 2208 0e8a 4FF48033 		mov	r3, #65536
 2209 0e8e 00E0     		b	.L57
 2210              	.L289:
 2211 0e90 114B     		ldr	r3, .L333
 2212              	.L57:
 214:/Users/Qianqian/Desktop/MPS/stm32lib/Drivers/STM32F7xx_HAL_Driver/Src/stm32f7xx_hal_dma_ex.c ****     
 2213              		.loc 1 214 0 discriminator 200
 2214 0e92 154A     		ldr	r2, .L333+16
 2215 0e94 9360     		str	r3, [r2, #8]
 2216 0e96 EEE6     		b	.L52
 2217              	.L290:
 214:/Users/Qianqian/Desktop/MPS/stm32lib/Drivers/STM32F7xx_HAL_Driver/Src/stm32f7xx_hal_dma_ex.c ****     
 2218              		.loc 1 214 0
 2219 0e98 0F4B     		ldr	r3, .L333
 2220 0e9a FAE7     		b	.L57
 2221              	.L291:
 2222 0e9c 0E4B     		ldr	r3, .L333
 2223 0e9e F8E7     		b	.L57
 2224              	.L292:
 2225 0ea0 0D4B     		ldr	r3, .L333
 2226 0ea2 F6E7     		b	.L57
 2227              	.L293:
 2228 0ea4 4023     		movs	r3, #64
 2229 0ea6 F4E7     		b	.L57
 2230              	.L294:
 2231 0ea8 4023     		movs	r3, #64
 2232 0eaa F2E7     		b	.L57
 2233              	.L295:
 2234 0eac 4023     		movs	r3, #64
 2235 0eae F0E7     		b	.L57
 2236              	.L296:
 2237 0eb0 4023     		movs	r3, #64
 2238 0eb2 EEE7     		b	.L57
 2239              	.L297:
 2240 0eb4 4FF48033 		mov	r3, #65536
 2241 0eb8 EBE7     		b	.L57
 2242              	.L298:
 2243 0eba 4FF48033 		mov	r3, #65536
 2244 0ebe E8E7     		b	.L57
 2245              	.L299:
 2246 0ec0 4FF48033 		mov	r3, #65536
 2247 0ec4 E5E7     		b	.L57
 2248              	.L321:
 220:/Users/Qianqian/Desktop/MPS/stm32lib/Drivers/STM32F7xx_HAL_Driver/Src/stm32f7xx_hal_dma_ex.c ****     {
 2249              		.loc 1 220 0 is_stmt 1 discriminator 1
 2250 0ec6 A36C     		ldr	r3, [r4, #72]
 2251 0ec8 002B     		cmp	r3, #0
 2252 0eca 7FF4E2AE 		bne	.L58
 2253 0ece E5E6     		b	.L59
 2254              	.LVL41:
 2255              	.L60:
 190:/Users/Qianqian/Desktop/MPS/stm32lib/Drivers/STM32F7xx_HAL_Driver/Src/stm32f7xx_hal_dma_ex.c ****   
 2256              		.loc 1 190 0
 2257 0ed0 0220     		movs	r0, #2
 2258              	.LVL42:
 2259 0ed2 FFF7AAB8 		b	.L16
 2260              	.L334:
 2261 0ed6 00BF     		.align	2
 2262              	.L333:
 2263 0ed8 01008000 		.word	8388609
 2264 0edc 00640240 		.word	1073898496
 2265 0ee0 B8600240 		.word	1073897656
 2266 0ee4 58600240 		.word	1073897560
 2267 0ee8 00600240 		.word	1073897472
 2268 0eec 10600240 		.word	1073897488
 2269              		.cfi_endproc
 2270              	.LFE139:
 2272              		.section	.text.HAL_DMAEx_ChangeMemory,"ax",%progbits
 2273              		.align	1
 2274              		.global	HAL_DMAEx_ChangeMemory
 2275              		.syntax unified
 2276              		.thumb
 2277              		.thumb_func
 2278              		.fpu fpv5-d16
 2280              	HAL_DMAEx_ChangeMemory:
 2281              	.LFB140:
 254:/Users/Qianqian/Desktop/MPS/stm32lib/Drivers/STM32F7xx_HAL_Driver/Src/stm32f7xx_hal_dma_ex.c ****   if(memory == MEMORY0)
 2282              		.loc 1 254 0
 2283              		.cfi_startproc
 2284              		@ args = 0, pretend = 0, frame = 0
 2285              		@ frame_needed = 0, uses_anonymous_args = 0
 2286              		@ link register save eliminated.
 2287              	.LVL43:
 255:/Users/Qianqian/Desktop/MPS/stm32lib/Drivers/STM32F7xx_HAL_Driver/Src/stm32f7xx_hal_dma_ex.c ****   {
 2288              		.loc 1 255 0
 2289 0000 1AB1     		cbz	r2, .L338
 263:/Users/Qianqian/Desktop/MPS/stm32lib/Drivers/STM32F7xx_HAL_Driver/Src/stm32f7xx_hal_dma_ex.c ****   }
 2290              		.loc 1 263 0
 2291 0002 0368     		ldr	r3, [r0]
 2292 0004 1961     		str	r1, [r3, #16]
 2293              	.L337:
 267:/Users/Qianqian/Desktop/MPS/stm32lib/Drivers/STM32F7xx_HAL_Driver/Src/stm32f7xx_hal_dma_ex.c **** 
 2294              		.loc 1 267 0
 2295 0006 0020     		movs	r0, #0
 2296              	.LVL44:
 2297 0008 7047     		bx	lr
 2298              	.LVL45:
 2299              	.L338:
 258:/Users/Qianqian/Desktop/MPS/stm32lib/Drivers/STM32F7xx_HAL_Driver/Src/stm32f7xx_hal_dma_ex.c ****   }
 2300              		.loc 1 258 0
 2301 000a 0368     		ldr	r3, [r0]
 2302 000c D960     		str	r1, [r3, #12]
 2303 000e FAE7     		b	.L337
 2304              		.cfi_endproc
 2305              	.LFE140:
 2307              		.text
 2308              	.Letext0:
 2309              		.file 2 "/Users/Qianqian/Applications/SystemWorkbench.app/Contents/Eclipse/plugins/fr.ac6.mcu.exte
 2310              		.file 3 "/Users/Qianqian/Applications/SystemWorkbench.app/Contents/Eclipse/plugins/fr.ac6.mcu.exte
 2311              		.file 4 "/Users/Qianqian/Desktop/MPS/stm32lib/Drivers/CMSIS/Include/core_cm7.h"
 2312              		.file 5 "/Users/Qianqian/Desktop/MPS/stm32lib/Drivers/CMSIS/Device/ST/STM32F7xx/Include/system_stm
 2313              		.file 6 "/Users/Qianqian/Desktop/MPS/stm32lib/Drivers/CMSIS/Device/ST/STM32F7xx/Include/stm32f769x
 2314              		.file 7 "/Users/Qianqian/Applications/SystemWorkbench.app/Contents/Eclipse/plugins/fr.ac6.mcu.exte
 2315              		.file 8 "/Users/Qianqian/Applications/SystemWorkbench.app/Contents/Eclipse/plugins/fr.ac6.mcu.exte
 2316              		.file 9 "/Users/Qianqian/Applications/SystemWorkbench.app/Contents/Eclipse/plugins/fr.ac6.mcu.exte
 2317              		.file 10 "/Users/Qianqian/Applications/SystemWorkbench.app/Contents/Eclipse/plugins/fr.ac6.mcu.ext
 2318              		.file 11 "/Users/Qianqian/Desktop/MPS/stm32lib/Drivers/STM32F7xx_HAL_Driver/Inc/stm32f7xx_hal_def.
 2319              		.file 12 "/Users/Qianqian/Desktop/MPS/stm32lib/Drivers/STM32F7xx_HAL_Driver/Inc/stm32f7xx_hal_dma.
 2320              		.file 13 "/Users/Qianqian/Desktop/MPS/stm32lib/Drivers/STM32F7xx_HAL_Driver/Inc/stm32f7xx_hal_dma_